(i__main__
DBEntry
p0
(dp1
S'player_cards'
p2
(lp3
S'2'
p4
ag4
asS'classification'
p5
(S'stand'
p6
F-0.2891
tp7
sS'dealer_card'
p8
g4
sb.(i__main__
DBEntry
p0
(dp1
S'player_cards'
p2
(lp3
S'2'
p4
ag4
asS'classification'
p5
(S'stand'
p6
F-0.24684
tp7
sS'dealer_card'
p8
S'3'
p9
sb.(i__main__
DBEntry
p0
(dp1
S'player_cards'
p2
(lp3
S'2'
p4
ag4
asS'classification'
p5
(S'hit'
p6
F-0.20808
tp7
sS'dealer_card'
p8
S'4'
p9
sb.(i__main__
DBEntry
p0
(dp1
S'player_cards'
p2
(lp3
S'2'
p4
ag4
asS'classification'
p5
(S'stand'
p6
F-0.16356
tp7
sS'dealer_card'
p8
S'5'
p9
sb.(i__main__
DBEntry
p0
(dp1
S'player_cards'
p2
(lp3
S'2'
p4
ag4
asS'classification'
p5
(S'hit'
p6
F-0.14882
tp7
sS'dealer_card'
p8
S'6'
p9
sb.(i__main__
DBEntry
p0
(dp1
S'player_cards'
p2
(lp3
S'2'
p4
ag4
asS'classification'
p5
(S'stand'
p6
F-0.48002
tp7
sS'dealer_card'
p8
S'7'
p9
sb.(i__main__
DBEntry
p0
(dp1
S'player_cards'
p2
(lp3
S'2'
p4
ag4
asS'classification'
p5
(S'hit'
p6
F-0.50704
tp7
sS'dealer_card'
p8
S'8'
p9
sb.(i__main__
DBEntry
p0
(dp1
S'player_cards'
p2
(lp3
S'2'
p4
ag4
asS'classification'
p5
(S'hit'
p6
F-0.54344
tp7
sS'dealer_card'
p8
S'9'
p9
sb.(i__main__
DBEntry
p0
(dp1
S'player_cards'
p2
(lp3
S'2'
p4
ag4
asS'classification'
p5
(S'hit'
p6
F-0.57308
tp7
sS'dealer_card'
p8
S'10'
p9
sb.(i__main__
DBEntry
p0
(dp1
S'player_cards'
p2
(lp3
S'2'
p4
ag4
asS'classification'
p5
(S'hit'
p6
F-0.77102
tp7
sS'dealer_card'
p8
S'A'
p9
sb.(i__main__
DBEntry
p0
(dp1
S'player_cards'
p2
(lp3
S'2'
p4
aS'3'
p5
asS'classification'
p6
(S'hit'
p7
F-0.29158
tp8
sS'dealer_card'
p9
g4
sb.(i__main__
DBEntry
p0
(dp1
S'player_cards'
p2
(lp3
S'2'
p4
aS'3'
p5
asS'classification'
p6
(S'stand'
p7
F-0.25038
tp8
sS'dealer_card'
p9
g5
sb.(i__main__
DBEntry
p0
(dp1
S'player_cards'
p2
(lp3
S'2'
p4
aS'3'
p5
asS'classification'
p6
(S'stand'
p7
F-0.21056
tp8
sS'dealer_card'
p9
S'4'
p10
sb.(i__main__
DBEntry
p0
(dp1
S'player_cards'
p2
(lp3
S'2'
p4
aS'3'
p5
asS'classification'
p6
(S'stand'
p7
F-0.16068
tp8
sS'dealer_card'
p9
S'5'
p10
sb.(i__main__
DBEntry
p0
(dp1
S'player_cards'
p2
(lp3
S'2'
p4
aS'3'
p5
asS'classification'
p6
(S'hit'
p7
F-0.14906
tp8
sS'dealer_card'
p9
S'6'
p10
sb.(i__main__
DBEntry
p0
(dp1
S'player_cards'
p2
(lp3
S'2'
p4
aS'3'
p5
asS'classification'
p6
(S'hit'
p7
F-0.47408
tp8
sS'dealer_card'
p9
S'7'
p10
sb.(i__main__
DBEntry
p0
(dp1
S'player_cards'
p2
(lp3
S'2'
p4
aS'3'
p5
asS'classification'
p6
(S'stand'
p7
F-0.51246
tp8
sS'dealer_card'
p9
S'8'
p10
sb.(i__main__
DBEntry
p0
(dp1
S'player_cards'
p2
(lp3
S'2'
p4
aS'3'
p5
asS'classification'
p6
(S'stand'
p7
F-0.54364
tp8
sS'dealer_card'
p9
S'9'
p10
sb.(i__main__
DBEntry
p0
(dp1
S'player_cards'
p2
(lp3
S'2'
p4
aS'3'
p5
asS'classification'
p6
(S'hit'
p7
F-0.57334
tp8
sS'dealer_card'
p9
S'10'
p10
sb.(i__main__
DBEntry
p0
(dp1
S'player_cards'
p2
(lp3
S'2'
p4
aS'3'
p5
asS'classification'
p6
(S'hit'
p7
F-0.7672
tp8
sS'dealer_card'
p9
S'A'
p10
sb.(i__main__
DBEntry
p0
(dp1
S'player_cards'
p2
(lp3
S'2'
p4
aS'4'
p5
asS'classification'
p6
(S'hit'
p7
F-0.27698
tp8
sS'dealer_card'
p9
g4
sb.(i__main__
DBEntry
p0
(dp1
S'player_cards'
p2
(lp3
S'2'
p4
aS'4'
p5
asS'classification'
p6
(S'hit'
p7
F-0.24325
tp8
sS'dealer_card'
p9
S'3'
p10
sb.(i__main__
DBEntry
p0
(dp1
S'player_cards'
p2
(lp3
S'2'
p4
aS'4'
p5
asS'classification'
p6
(S'hit'
p7
F-0.19799
tp8
sS'dealer_card'
p9
g5
sb.(i__main__
DBEntry
p0
(dp1
S'player_cards'
p2
(lp3
S'2'
p4
aS'4'
p5
asS'classification'
p6
(S'hit'
p7
F-0.15366
tp8
sS'dealer_card'
p9
S'5'
p10
sb.(i__main__
DBEntry
p0
(dp1
S'player_cards'
p2
(lp3
S'2'
p4
aS'4'
p5
asS'classification'
p6
(S'hit'
p7
F-0.14443
tp8
sS'dealer_card'
p9
S'6'
p10
sb.(i__main__
DBEntry
p0
(dp1
S'player_cards'
p2
(lp3
S'2'
p4
aS'4'
p5
asS'classification'
p6
(S'hit'
p7
F-0.44964
tp8
sS'dealer_card'
p9
S'7'
p10
sb.(i__main__
DBEntry
p0
(dp1
S'player_cards'
p2
(lp3
S'2'
p4
aS'4'
p5
asS'classification'
p6
(S'hit'
p7
F-0.50285
tp8
sS'dealer_card'
p9
S'8'
p10
sb.(i__main__
DBEntry
p0
(dp1
S'player_cards'
p2
(lp3
S'2'
p4
aS'4'
p5
asS'classification'
p6
(S'hit'
p7
F-0.53084
tp8
sS'dealer_card'
p9
S'9'
p10
sb.(i__main__
DBEntry
p0
(dp1
S'player_cards'
p2
(lp3
S'2'
p4
aS'4'
p5
asS'classification'
p6
(S'hit'
p7
F-0.56759
tp8
sS'dealer_card'
p9
S'10'
p10
sb.(i__main__
DBEntry
p0
(dp1
S'player_cards'
p2
(lp3
S'2'
p4
aS'4'
p5
asS'classification'
p6
(S'hit'
p7
F-0.75454
tp8
sS'dealer_card'
p9
S'A'
p10
sb.(i__main__
DBEntry
p0
(dp1
S'player_cards'
p2
(lp3
S'2'
p4
aS'5'
p5
asS'classification'
p6
(S'hit'
p7
F-0.21852
tp8
sS'dealer_card'
p9
g4
sb.(i__main__
DBEntry
p0
(dp1
S'player_cards'
p2
(lp3
S'2'
p4
aS'5'
p5
asS'classification'
p6
(S'hit'
p7
F-0.17996
tp8
sS'dealer_card'
p9
S'3'
p10
sb.(i__main__
DBEntry
p0
(dp1
S'player_cards'
p2
(lp3
S'2'
p4
aS'5'
p5
asS'classification'
p6
(S'hit'
p7
F-0.14277
tp8
sS'dealer_card'
p9
S'4'
p10
sb.(i__main__
DBEntry
p0
(dp1
S'player_cards'
p2
(lp3
S'2'
p4
aS'5'
p5
asS'classification'
p6
(S'hit'
p7
F-0.10055
tp8
sS'dealer_card'
p9
g5
sb.(i__main__
DBEntry
p0
(dp1
S'player_cards'
p2
(lp3
S'2'
p4
aS'5'
p5
asS'classification'
p6
(S'hit'
p7
F-0.07395
tp8
sS'dealer_card'
p9
S'6'
p10
sb.(i__main__
DBEntry
p0
(dp1
S'player_cards'
p2
(lp3
S'2'
p4
aS'5'
p5
asS'classification'
p6
(S'hit'
p7
F-0.28974
tp8
sS'dealer_card'
p9
S'7'
p10
sb.(i__main__
DBEntry
p0
(dp1
S'player_cards'
p2
(lp3
S'2'
p4
aS'5'
p5
asS'classification'
p6
(S'hit'
p7
F-0.42578
tp8
sS'dealer_card'
p9
S'8'
p10
sb.(i__main__
DBEntry
p0
(dp1
S'player_cards'
p2
(lp3
S'2'
p4
aS'5'
p5
asS'classification'
p6
(S'hit'
p7
F-0.47852
tp8
sS'dealer_card'
p9
S'9'
p10
sb.(i__main__
DBEntry
p0
(dp1
S'player_cards'
p2
(lp3
S'2'
p4
aS'5'
p5
asS'classification'
p6
(S'hit'
p7
F-0.51534
tp8
sS'dealer_card'
p9
S'10'
p10
sb.(i__main__
DBEntry
p0
(dp1
S'player_cards'
p2
(lp3
S'2'
p4
aS'5'
p5
asS'classification'
p6
(S'hit'
p7
F-0.69653
tp8
sS'dealer_card'
p9
S'A'
p10
sb.(i__main__
DBEntry
p0
(dp1
S'player_cards'
p2
(lp3
S'2'
p4
aS'6'
p5
asS'classification'
p6
(S'hit'
p7
F-0.10304
tp8
sS'dealer_card'
p9
g4
sb.(i__main__
DBEntry
p0
(dp1
S'player_cards'
p2
(lp3
S'2'
p4
aS'6'
p5
asS'classification'
p6
(S'hit'
p7
F-0.06797
tp8
sS'dealer_card'
p9
S'3'
p10
sb.(i__main__
DBEntry
p0
(dp1
S'player_cards'
p2
(lp3
S'2'
p4
aS'6'
p5
asS'classification'
p6
(S'hit'
p7
F-0.0336
tp8
sS'dealer_card'
p9
S'4'
p10
sb.(i__main__
DBEntry
p0
(dp1
S'player_cards'
p2
(lp3
S'2'
p4
aS'6'
p5
asS'classification'
p6
(S'hit'
p7
F0.00941
tp8
sS'dealer_card'
p9
S'5'
p10
sb.(i__main__
DBEntry
p0
(dp1
S'player_cards'
p2
(lp3
S'2'
p4
aS'6'
p5
asS'classification'
p6
(S'double_down'
p7
F0.08982
tp8
sS'dealer_card'
p9
g5
sb.(i__main__
DBEntry
p0
(dp1
S'player_cards'
p2
(lp3
S'2'
p4
aS'6'
p5
asS'classification'
p6
(S'hit'
p7
F-0.09211
tp8
sS'dealer_card'
p9
S'7'
p10
sb.(i__main__
DBEntry
p0
(dp1
S'player_cards'
p2
(lp3
S'2'
p4
aS'6'
p5
asS'classification'
p6
(S'hit'
p7
F-0.22224
tp8
sS'dealer_card'
p9
S'8'
p10
sb.(i__main__
DBEntry
p0
(dp1
S'player_cards'
p2
(lp3
S'2'
p4
aS'6'
p5
asS'classification'
p6
(S'hit'
p7
F-0.35793
tp8
sS'dealer_card'
p9
S'9'
p10
sb.(i__main__
DBEntry
p0
(dp1
S'player_cards'
p2
(lp3
S'2'
p4
aS'6'
p5
asS'classification'
p6
(S'hit'
p7
F-0.42465
tp8
sS'dealer_card'
p9
S'10'
p10
sb.(i__main__
DBEntry
p0
(dp1
S'player_cards'
p2
(lp3
S'2'
p4
aS'6'
p5
asS'classification'
p6
(S'hit'
p7
F-0.58795
tp8
sS'dealer_card'
p9
S'A'
p10
sb.(i__main__
DBEntry
p0
(dp1
S'player_cards'
p2
(lp3
S'2'
p4
aS'7'
p5
asS'classification'
p6
(S'double_down'
p7
F0.06736
tp8
sS'dealer_card'
p9
g4
sb.(i__main__
DBEntry
p0
(dp1
S'player_cards'
p2
(lp3
S'2'
p4
aS'7'
p5
asS'classification'
p6
(S'double_down'
p7
F0.12256
tp8
sS'dealer_card'
p9
S'3'
p10
sb.(i__main__
DBEntry
p0
(dp1
S'player_cards'
p2
(lp3
S'2'
p4
aS'7'
p5
asS'classification'
p6
(S'double_down'
p7
F0.17632
tp8
sS'dealer_card'
p9
S'4'
p10
sb.(i__main__
DBEntry
p0
(dp1
S'player_cards'
p2
(lp3
S'2'
p4
aS'7'
p5
asS'classification'
p6
(S'double_down'
p7
F0.23886
tp8
sS'dealer_card'
p9
S'5'
p10
sb.(i__main__
DBEntry
p0
(dp1
S'player_cards'
p2
(lp3
S'2'
p4
aS'7'
p5
asS'classification'
p6
(S'double_down'
p7
F0.32202
tp8
sS'dealer_card'
p9
S'6'
p10
sb.(i__main__
DBEntry
p0
(dp1
S'player_cards'
p2
(lp3
S'2'
p4
aS'7'
p5
asS'classification'
p6
(S'double_down'
p7
F0.11144
tp8
sS'dealer_card'
p9
g5
sb.(i__main__
DBEntry
p0
(dp1
S'player_cards'
p2
(lp3
S'2'
p4
aS'7'
p5
asS'classification'
p6
(S'hit'
p7
F-0.00839
tp8
sS'dealer_card'
p9
S'8'
p10
sb.(i__main__
DBEntry
p0
(dp1
S'player_cards'
p2
(lp3
S'2'
p4
aS'7'
p5
asS'classification'
p6
(S'hit'
p7
F-0.1449
tp8
sS'dealer_card'
p9
S'9'
p10
sb.(i__main__
DBEntry
p0
(dp1
S'player_cards'
p2
(lp3
S'2'
p4
aS'7'
p5
asS'classification'
p6
(S'hit'
p7
F-0.29144
tp8
sS'dealer_card'
p9
S'10'
p10
sb.(i__main__
DBEntry
p0
(dp1
S'player_cards'
p2
(lp3
S'2'
p4
aS'7'
p5
asS'classification'
p6
(S'hit'
p7
F-0.45745
tp8
sS'dealer_card'
p9
S'A'
p10
sb.(i__main__
DBEntry
p0
(dp1
S'player_cards'
p2
(lp3
S'2'
p4
aS'8'
p5
asS'classification'
p6
(S'double_down'
p7
F0.36346
tp8
sS'dealer_card'
p9
g4
sb.(i__main__
DBEntry
p0
(dp1
S'player_cards'
p2
(lp3
S'2'
p4
aS'8'
p5
asS'classification'
p6
(S'double_down'
p7
F0.39472
tp8
sS'dealer_card'
p9
S'3'
p10
sb.(i__main__
DBEntry
p0
(dp1
S'player_cards'
p2
(lp3
S'2'
p4
aS'8'
p5
asS'classification'
p6
(S'double_down'
p7
F0.47702
tp8
sS'dealer_card'
p9
S'4'
p10
sb.(i__main__
DBEntry
p0
(dp1
S'player_cards'
p2
(lp3
S'2'
p4
aS'8'
p5
asS'classification'
p6
(S'double_down'
p7
F0.51134
tp8
sS'dealer_card'
p9
S'5'
p10
sb.(i__main__
DBEntry
p0
(dp1
S'player_cards'
p2
(lp3
S'2'
p4
aS'8'
p5
asS'classification'
p6
(S'double_down'
p7
F0.57342
tp8
sS'dealer_card'
p9
S'6'
p10
sb.(i__main__
DBEntry
p0
(dp1
S'player_cards'
p2
(lp3
S'2'
p4
aS'8'
p5
asS'classification'
p6
(S'double_down'
p7
F0.39158
tp8
sS'dealer_card'
p9
S'7'
p10
sb.(i__main__
DBEntry
p0
(dp1
S'player_cards'
p2
(lp3
S'2'
p4
aS'8'
p5
asS'classification'
p6
(S'double_down'
p7
F0.29952
tp8
sS'dealer_card'
p9
g5
sb.(i__main__
DBEntry
p0
(dp1
S'player_cards'
p2
(lp3
S'2'
p4
aS'8'
p5
asS'classification'
p6
(S'double_down'
p7
F0.14958
tp8
sS'dealer_card'
p9
S'9'
p10
sb.(i__main__
DBEntry
p0
(dp1
S'player_cards'
p2
(lp3
S'2'
p4
aS'8'
p5
asS'classification'
p6
(S'hit'
p7
F-0.07436
tp8
sS'dealer_card'
p9
S'10'
p10
sb.(i__main__
DBEntry
p0
(dp1
S'player_cards'
p2
(lp3
S'2'
p4
aS'8'
p5
asS'classification'
p6
(S'hit'
p7
F-0.28851
tp8
sS'dealer_card'
p9
S'A'
p10
sb.(i__main__
DBEntry
p0
(dp1
S'player_cards'
p2
(lp3
S'2'
p4
aS'9'
p5
asS'classification'
p6
(S'double_down'
p7
F0.47138
tp8
sS'dealer_card'
p9
g4
sb.(i__main__
DBEntry
p0
(dp1
S'player_cards'
p2
(lp3
S'2'
p4
aS'9'
p5
asS'classification'
p6
(S'double_down'
p7
F0.5186
tp8
sS'dealer_card'
p9
S'3'
p10
sb.(i__main__
DBEntry
p0
(dp1
S'player_cards'
p2
(lp3
S'2'
p4
aS'9'
p5
asS'classification'
p6
(S'double_down'
p7
F0.56148
tp8
sS'dealer_card'
p9
S'4'
p10
sb.(i__main__
DBEntry
p0
(dp1
S'player_cards'
p2
(lp3
S'2'
p4
aS'9'
p5
asS'classification'
p6
(S'double_down'
p7
F0.6088
tp8
sS'dealer_card'
p9
S'5'
p10
sb.(i__main__
DBEntry
p0
(dp1
S'player_cards'
p2
(lp3
S'2'
p4
aS'9'
p5
asS'classification'
p6
(S'double_down'
p7
F0.66648
tp8
sS'dealer_card'
p9
S'6'
p10
sb.(i__main__
DBEntry
p0
(dp1
S'player_cards'
p2
(lp3
S'2'
p4
aS'9'
p5
asS'classification'
p6
(S'double_down'
p7
F0.46178
tp8
sS'dealer_card'
p9
S'7'
p10
sb.(i__main__
DBEntry
p0
(dp1
S'player_cards'
p2
(lp3
S'2'
p4
aS'9'
p5
asS'classification'
p6
(S'double_down'
p7
F0.3442
tp8
sS'dealer_card'
p9
S'8'
p10
sb.(i__main__
DBEntry
p0
(dp1
S'player_cards'
p2
(lp3
S'2'
p4
aS'9'
p5
asS'classification'
p6
(S'double_down'
p7
F0.21404
tp8
sS'dealer_card'
p9
g5
sb.(i__main__
DBEntry
p0
(dp1
S'player_cards'
p2
(lp3
S'2'
p4
aS'9'
p5
asS'classification'
p6
(S'double_down'
p7
F0.05164
tp8
sS'dealer_card'
p9
S'10'
p10
sb.(i__main__
DBEntry
p0
(dp1
S'player_cards'
p2
(lp3
S'2'
p4
aS'9'
p5
asS'classification'
p6
(S'hit'
p7
F-0.1748
tp8
sS'dealer_card'
p9
S'A'
p10
sb.(i__main__
DBEntry
p0
(dp1
S'player_cards'
p2
(lp3
S'2'
p4
aS'10'
p5
asS'classification'
p6
(S'hit'
p7
F-0.24701
tp8
sS'dealer_card'
p9
g4
sb.(i__main__
DBEntry
p0
(dp1
S'player_cards'
p2
(lp3
S'2'
p4
aS'10'
p5
asS'classification'
p6
(S'hit'
p7
F-0.23637
tp8
sS'dealer_card'
p9
S'3'
p10
sb.(i__main__
DBEntry
p0
(dp1
S'player_cards'
p2
(lp3
S'2'
p4
aS'10'
p5
asS'classification'
p6
(S'hit'
p7
F-0.21143
tp8
sS'dealer_card'
p9
S'4'
p10
sb.(i__main__
DBEntry
p0
(dp1
S'player_cards'
p2
(lp3
S'2'
p4
aS'10'
p5
asS'classification'
p6
(S'stand'
p7
F-0.16686
tp8
sS'dealer_card'
p9
S'5'
p10
sb.(i__main__
DBEntry
p0
(dp1
S'player_cards'
p2
(lp3
S'2'
p4
aS'10'
p5
asS'classification'
p6
(S'stand'
p7
F-0.14846
tp8
sS'dealer_card'
p9
S'6'
p10
sb.(i__main__
DBEntry
p0
(dp1
S'player_cards'
p2
(lp3
S'2'
p4
aS'10'
p5
asS'classification'
p6
(S'hit'
p7
F-0.24845
tp8
sS'dealer_card'
p9
S'7'
p10
sb.(i__main__
DBEntry
p0
(dp1
S'player_cards'
p2
(lp3
S'2'
p4
aS'10'
p5
asS'classification'
p6
(S'hit'
p7
F-0.30807
tp8
sS'dealer_card'
p9
S'8'
p10
sb.(i__main__
DBEntry
p0
(dp1
S'player_cards'
p2
(lp3
S'2'
p4
aS'10'
p5
asS'classification'
p6
(S'hit'
p7
F-0.36798
tp8
sS'dealer_card'
p9
S'9'
p10
sb.(i__main__
DBEntry
p0
(dp1
S'player_cards'
p2
(lp3
S'2'
p4
aS'10'
p5
asS'classification'
p6
(S'hit'
p7
F-0.44201
tp8
sS'dealer_card'
p9
g5
sb.(i__main__
DBEntry
p0
(dp1
S'player_cards'
p2
(lp3
S'2'
p4
aS'10'
p5
asS'classification'
p6
(S'hit'
p7
F-0.57061
tp8
sS'dealer_card'
p9
S'A'
p10
sb.(i__main__
DBEntry
p0
(dp1
S'player_cards'
p2
(lp3
S'2'
p4
aS'A'
p5
asS'classification'
p6
(S'hit'
p7
F-0.03821
tp8
sS'dealer_card'
p9
g4
sb.(i__main__
DBEntry
p0
(dp1
S'player_cards'
p2
(lp3
S'2'
p4
aS'A'
p5
asS'classification'
p6
(S'hit'
p7
F-0.00233
tp8
sS'dealer_card'
p9
S'3'
p10
sb.(i__main__
DBEntry
p0
(dp1
S'player_cards'
p2
(lp3
S'2'
p4
aS'A'
p5
asS'classification'
p6
(S'double_down'
p7
F0.0604
tp8
sS'dealer_card'
p9
S'4'
p10
sb.(i__main__
DBEntry
p0
(dp1
S'player_cards'
p2
(lp3
S'2'
p4
aS'A'
p5
asS'classification'
p6
(S'double_down'
p7
F0.12778
tp8
sS'dealer_card'
p9
S'5'
p10
sb.(i__main__
DBEntry
p0
(dp1
S'player_cards'
p2
(lp3
S'2'
p4
aS'A'
p5
asS'classification'
p6
(S'double_down'
p7
F0.16896
tp8
sS'dealer_card'
p9
S'6'
p10
sb.(i__main__
DBEntry
p0
(dp1
S'player_cards'
p2
(lp3
S'2'
p4
aS'A'
p5
asS'classification'
p6
(S'hit'
p7
F-0.09117
tp8
sS'dealer_card'
p9
S'7'
p10
sb.(i__main__
DBEntry
p0
(dp1
S'player_cards'
p2
(lp3
S'2'
p4
aS'A'
p5
asS'classification'
p6
(S'hit'
p7
F-0.15651
tp8
sS'dealer_card'
p9
S'8'
p10
sb.(i__main__
DBEntry
p0
(dp1
S'player_cards'
p2
(lp3
S'2'
p4
aS'A'
p5
asS'classification'
p6
(S'hit'
p7
F-0.22913
tp8
sS'dealer_card'
p9
S'9'
p10
sb.(i__main__
DBEntry
p0
(dp1
S'player_cards'
p2
(lp3
S'2'
p4
aS'A'
p5
asS'classification'
p6
(S'hit'
p7
F-0.30933
tp8
sS'dealer_card'
p9
S'10'
p10
sb.(i__main__
DBEntry
p0
(dp1
S'player_cards'
p2
(lp3
S'2'
p4
aS'A'
p5
asS'classification'
p6
(S'hit'
p7
F-0.50106
tp8
sS'dealer_card'
p9
g5
sb.(i__main__
DBEntry
p0
(dp1
S'player_cards'
p2
(lp3
S'3'
p4
ag4
asS'classification'
p5
(S'hit'
p6
F-0.28348
tp7
sS'dealer_card'
p8
S'2'
p9
sb.(i__main__
DBEntry
p0
(dp1
S'player_cards'
p2
(lp3
S'3'
p4
ag4
asS'classification'
p5
(S'hit'
p6
F-0.24379
tp7
sS'dealer_card'
p8
g4
sb.(i__main__
DBEntry
p0
(dp1
S'player_cards'
p2
(lp3
S'3'
p4
ag4
asS'classification'
p5
(S'hit'
p6
F-0.20236
tp7
sS'dealer_card'
p8
S'4'
p9
sb.(i__main__
DBEntry
p0
(dp1
S'player_cards'
p2
(lp3
S'3'
p4
ag4
asS'classification'
p5
(S'hit'
p6
F-0.15674
tp7
sS'dealer_card'
p8
S'5'
p9
sb.(i__main__
DBEntry
p0
(dp1
S'player_cards'
p2
(lp3
S'3'
p4
ag4
asS'classification'
p5
(S'hit'
p6
F-0.1436
tp7
sS'dealer_card'
p8
S'6'
p9
sb.(i__main__
DBEntry
p0
(dp1
S'player_cards'
p2
(lp3
S'3'
p4
ag4
asS'classification'
p5
(S'hit'
p6
F-0.44458
tp7
sS'dealer_card'
p8
S'7'
p9
sb.(i__main__
DBEntry
p0
(dp1
S'player_cards'
p2
(lp3
S'3'
p4
ag4
asS'classification'
p5
(S'hit'
p6
F-0.49957
tp7
sS'dealer_card'
p8
S'8'
p9
sb.(i__main__
DBEntry
p0
(dp1
S'player_cards'
p2
(lp3
S'3'
p4
ag4
asS'classification'
p5
(S'hit'
p6
F-0.53547
tp7
sS'dealer_card'
p8
S'9'
p9
sb.(i__main__
DBEntry
p0
(dp1
S'player_cards'
p2
(lp3
S'3'
p4
ag4
asS'classification'
p5
(S'hit'
p6
F-0.56557
tp7
sS'dealer_card'
p8
S'10'
p9
sb.(i__main__
DBEntry
p0
(dp1
S'player_cards'
p2
(lp3
S'3'
p4
ag4
asS'classification'
p5
(S'hit'
p6
F-0.75717
tp7
sS'dealer_card'
p8
S'A'
p9
sb.(i__main__
DBEntry
p0
(dp1
S'player_cards'
p2
(lp3
S'3'
p4
aS'4'
p5
asS'classification'
p6
(S'hit'
p7
F-0.2179
tp8
sS'dealer_card'
p9
S'2'
p10
sb.(i__main__
DBEntry
p0
(dp1
S'player_cards'
p2
(lp3
S'3'
p4
aS'4'
p5
asS'classification'
p6
(S'hit'
p7
F-0.18022
tp8
sS'dealer_card'
p9
g4
sb.(i__main__
DBEntry
p0
(dp1
S'player_cards'
p2
(lp3
S'3'
p4
aS'4'
p5
asS'classification'
p6
(S'hit'
p7
F-0.13704
tp8
sS'dealer_card'
p9
g5
sb.(i__main__
DBEntry
p0
(dp1
S'player_cards'
p2
(lp3
S'3'
p4
aS'4'
p5
asS'classification'
p6
(S'hit'
p7
F-0.09504
tp8
sS'dealer_card'
p9
S'5'
p10
sb.(i__main__
DBEntry
p0
(dp1
S'player_cards'
p2
(lp3
S'3'
p4
aS'4'
p5
asS'classification'
p6
(S'hit'
p7
F-0.06704
tp8
sS'dealer_card'
p9
S'6'
p10
sb.(i__main__
DBEntry
p0
(dp1
S'player_cards'
p2
(lp3
S'3'
p4
aS'4'
p5
asS'classification'
p6
(S'hit'
p7
F-0.29827
tp8
sS'dealer_card'
p9
S'7'
p10
sb.(i__main__
DBEntry
p0
(dp1
S'player_cards'
p2
(lp3
S'3'
p4
aS'4'
p5
asS'classification'
p6
(S'hit'
p7
F-0.42218
tp8
sS'dealer_card'
p9
S'8'
p10
sb.(i__main__
DBEntry
p0
(dp1
S'player_cards'
p2
(lp3
S'3'
p4
aS'4'
p5
asS'classification'
p6
(S'hit'
p7
F-0.47857
tp8
sS'dealer_card'
p9
S'9'
p10
sb.(i__main__
DBEntry
p0
(dp1
S'player_cards'
p2
(lp3
S'3'
p4
aS'4'
p5
asS'classification'
p6
(S'hit'
p7
F-0.51258
tp8
sS'dealer_card'
p9
S'10'
p10
sb.(i__main__
DBEntry
p0
(dp1
S'player_cards'
p2
(lp3
S'3'
p4
aS'4'
p5
asS'classification'
p6
(S'hit'
p7
F-0.69956
tp8
sS'dealer_card'
p9
S'A'
p10
sb.(i__main__
DBEntry
p0
(dp1
S'player_cards'
p2
(lp3
S'3'
p4
aS'5'
p5
asS'classification'
p6
(S'hit'
p7
F-0.09992
tp8
sS'dealer_card'
p9
S'2'
p10
sb.(i__main__
DBEntry
p0
(dp1
S'player_cards'
p2
(lp3
S'3'
p4
aS'5'
p5
asS'classification'
p6
(S'hit'
p7
F-0.0759
tp8
sS'dealer_card'
p9
g4
sb.(i__main__
DBEntry
p0
(dp1
S'player_cards'
p2
(lp3
S'3'
p4
aS'5'
p5
asS'classification'
p6
(S'hit'
p7
F-0.03443
tp8
sS'dealer_card'
p9
S'4'
p10
sb.(i__main__
DBEntry
p0
(dp1
S'player_cards'
p2
(lp3
S'3'
p4
aS'5'
p5
asS'classification'
p6
(S'hit'
p7
F0.0092
tp8
sS'dealer_card'
p9
g5
sb.(i__main__
DBEntry
p0
(dp1
S'player_cards'
p2
(lp3
S'3'
p4
aS'5'
p5
asS'classification'
p6
(S'double_down'
p7
F0.09644
tp8
sS'dealer_card'
p9
S'6'
p10
sb.(i__main__
DBEntry
p0
(dp1
S'player_cards'
p2
(lp3
S'3'
p4
aS'5'
p5
asS'classification'
p6
(S'hit'
p7
F-0.09541
tp8
sS'dealer_card'
p9
S'7'
p10
sb.(i__main__
DBEntry
p0
(dp1
S'player_cards'
p2
(lp3
S'3'
p4
aS'5'
p5
asS'classification'
p6
(S'hit'
p7
F-0.22484
tp8
sS'dealer_card'
p9
S'8'
p10
sb.(i__main__
DBEntry
p0
(dp1
S'player_cards'
p2
(lp3
S'3'
p4
aS'5'
p5
asS'classification'
p6
(S'hit'
p7
F-0.36052
tp8
sS'dealer_card'
p9
S'9'
p10
sb.(i__main__
DBEntry
p0
(dp1
S'player_cards'
p2
(lp3
S'3'
p4
aS'5'
p5
asS'classification'
p6
(S'hit'
p7
F-0.42202
tp8
sS'dealer_card'
p9
S'10'
p10
sb.(i__main__
DBEntry
p0
(dp1
S'player_cards'
p2
(lp3
S'3'
p4
aS'5'
p5
asS'classification'
p6
(S'hit'
p7
F-0.58436
tp8
sS'dealer_card'
p9
S'A'
p10
sb.(i__main__
DBEntry
p0
(dp1
S'player_cards'
p2
(lp3
S'3'
p4
aS'6'
p5
asS'classification'
p6
(S'double_down'
p7
F0.0532
tp8
sS'dealer_card'
p9
S'2'
p10
sb.(i__main__
DBEntry
p0
(dp1
S'player_cards'
p2
(lp3
S'3'
p4
aS'6'
p5
asS'classification'
p6
(S'double_down'
p7
F0.1231
tp8
sS'dealer_card'
p9
g4
sb.(i__main__
DBEntry
p0
(dp1
S'player_cards'
p2
(lp3
S'3'
p4
aS'6'
p5
asS'classification'
p6
(S'double_down'
p7
F0.18368
tp8
sS'dealer_card'
p9
S'4'
p10
sb.(i__main__
DBEntry
p0
(dp1
S'player_cards'
p2
(lp3
S'3'
p4
aS'6'
p5
asS'classification'
p6
(S'double_down'
p7
F0.23896
tp8
sS'dealer_card'
p9
S'5'
p10
sb.(i__main__
DBEntry
p0
(dp1
S'player_cards'
p2
(lp3
S'3'
p4
aS'6'
p5
asS'classification'
p6
(S'double_down'
p7
F0.32462
tp8
sS'dealer_card'
p9
g5
sb.(i__main__
DBEntry
p0
(dp1
S'player_cards'
p2
(lp3
S'3'
p4
aS'6'
p5
asS'classification'
p6
(S'double_down'
p7
F0.10126
tp8
sS'dealer_card'
p9
S'7'
p10
sb.(i__main__
DBEntry
p0
(dp1
S'player_cards'
p2
(lp3
S'3'
p4
aS'6'
p5
asS'classification'
p6
(S'hit'
p7
F-0.01164
tp8
sS'dealer_card'
p9
S'8'
p10
sb.(i__main__
DBEntry
p0
(dp1
S'player_cards'
p2
(lp3
S'3'
p4
aS'6'
p5
asS'classification'
p6
(S'hit'
p7
F-0.15451
tp8
sS'dealer_card'
p9
S'9'
p10
sb.(i__main__
DBEntry
p0
(dp1
S'player_cards'
p2
(lp3
S'3'
p4
aS'6'
p5
asS'classification'
p6
(S'hit'
p7
F-0.2908
tp8
sS'dealer_card'
p9
S'10'
p10
sb.(i__main__
DBEntry
p0
(dp1
S'player_cards'
p2
(lp3
S'3'
p4
aS'6'
p5
asS'classification'
p6
(S'hit'
p7
F-0.45649
tp8
sS'dealer_card'
p9
S'A'
p10
sb.(i__main__
DBEntry
p0
(dp1
S'player_cards'
p2
(lp3
S'3'
p4
aS'7'
p5
asS'classification'
p6
(S'double_down'
p7
F0.36044
tp8
sS'dealer_card'
p9
S'2'
p10
sb.(i__main__
DBEntry
p0
(dp1
S'player_cards'
p2
(lp3
S'3'
p4
aS'7'
p5
asS'classification'
p6
(S'double_down'
p7
F0.4043
tp8
sS'dealer_card'
p9
g4
sb.(i__main__
DBEntry
p0
(dp1
S'player_cards'
p2
(lp3
S'3'
p4
aS'7'
p5
asS'classification'
p6
(S'double_down'
p7
F0.46834
tp8
sS'dealer_card'
p9
S'4'
p10
sb.(i__main__
DBEntry
p0
(dp1
S'player_cards'
p2
(lp3
S'3'
p4
aS'7'
p5
asS'classification'
p6
(S'double_down'
p7
F0.50682
tp8
sS'dealer_card'
p9
S'5'
p10
sb.(i__main__
DBEntry
p0
(dp1
S'player_cards'
p2
(lp3
S'3'
p4
aS'7'
p5
asS'classification'
p6
(S'double_down'
p7
F0.5681
tp8
sS'dealer_card'
p9
S'6'
p10
sb.(i__main__
DBEntry
p0
(dp1
S'player_cards'
p2
(lp3
S'3'
p4
aS'7'
p5
asS'classification'
p6
(S'double_down'
p7
F0.39532
tp8
sS'dealer_card'
p9
g5
sb.(i__main__
DBEntry
p0
(dp1
S'player_cards'
p2
(lp3
S'3'
p4
aS'7'
p5
asS'classification'
p6
(S'double_down'
p7
F0.2769
tp8
sS'dealer_card'
p9
S'8'
p10
sb.(i__main__
DBEntry
p0
(dp1
S'player_cards'
p2
(lp3
S'3'
p4
aS'7'
p5
asS'classification'
p6
(S'double_down'
p7
F0.13986
tp8
sS'dealer_card'
p9
S'9'
p10
sb.(i__main__
DBEntry
p0
(dp1
S'player_cards'
p2
(lp3
S'3'
p4
aS'7'
p5
asS'classification'
p6
(S'hit'
p7
F-0.07333
tp8
sS'dealer_card'
p9
S'10'
p10
sb.(i__main__
DBEntry
p0
(dp1
S'player_cards'
p2
(lp3
S'3'
p4
aS'7'
p5
asS'classification'
p6
(S'hit'
p7
F-0.29176
tp8
sS'dealer_card'
p9
S'A'
p10
sb.(i__main__
DBEntry
p0
(dp1
S'player_cards'
p2
(lp3
S'3'
p4
aS'8'
p5
asS'classification'
p6
(S'double_down'
p7
F0.47202
tp8
sS'dealer_card'
p9
S'2'
p10
sb.(i__main__
DBEntry
p0
(dp1
S'player_cards'
p2
(lp3
S'3'
p4
aS'8'
p5
asS'classification'
p6
(S'double_down'
p7
F0.52046
tp8
sS'dealer_card'
p9
g4
sb.(i__main__
DBEntry
p0
(dp1
S'player_cards'
p2
(lp3
S'3'
p4
aS'8'
p5
asS'classification'
p6
(S'double_down'
p7
F0.56502
tp8
sS'dealer_card'
p9
S'4'
p10
sb.(i__main__
DBEntry
p0
(dp1
S'player_cards'
p2
(lp3
S'3'
p4
aS'8'
p5
asS'classification'
p6
(S'double_down'
p7
F0.6151
tp8
sS'dealer_card'
p9
S'5'
p10
sb.(i__main__
DBEntry
p0
(dp1
S'player_cards'
p2
(lp3
S'3'
p4
aS'8'
p5
asS'classification'
p6
(S'double_down'
p7
F0.66628
tp8
sS'dealer_card'
p9
S'6'
p10
sb.(i__main__
DBEntry
p0
(dp1
S'player_cards'
p2
(lp3
S'3'
p4
aS'8'
p5
asS'classification'
p6
(S'double_down'
p7
F0.46074
tp8
sS'dealer_card'
p9
S'7'
p10
sb.(i__main__
DBEntry
p0
(dp1
S'player_cards'
p2
(lp3
S'3'
p4
aS'8'
p5
asS'classification'
p6
(S'double_down'
p7
F0.35426
tp8
sS'dealer_card'
p9
g5
sb.(i__main__
DBEntry
p0
(dp1
S'player_cards'
p2
(lp3
S'3'
p4
aS'8'
p5
asS'classification'
p6
(S'double_down'
p7
F0.23844
tp8
sS'dealer_card'
p9
S'9'
p10
sb.(i__main__
DBEntry
p0
(dp1
S'player_cards'
p2
(lp3
S'3'
p4
aS'8'
p5
asS'classification'
p6
(S'double_down'
p7
F0.05426
tp8
sS'dealer_card'
p9
S'10'
p10
sb.(i__main__
DBEntry
p0
(dp1
S'player_cards'
p2
(lp3
S'3'
p4
aS'8'
p5
asS'classification'
p6
(S'hit'
p7
F-0.17089
tp8
sS'dealer_card'
p9
S'A'
p10
sb.(i__main__
DBEntry
p0
(dp1
S'player_cards'
p2
(lp3
S'3'
p4
aS'9'
p5
asS'classification'
p6
(S'hit'
p7
F-0.25084
tp8
sS'dealer_card'
p9
S'2'
p10
sb.(i__main__
DBEntry
p0
(dp1
S'player_cards'
p2
(lp3
S'3'
p4
aS'9'
p5
asS'classification'
p6
(S'hit'
p7
F-0.23422
tp8
sS'dealer_card'
p9
g4
sb.(i__main__
DBEntry
p0
(dp1
S'player_cards'
p2
(lp3
S'3'
p4
aS'9'
p5
asS'classification'
p6
(S'hit'
p7
F-0.21517
tp8
sS'dealer_card'
p9
S'4'
p10
sb.(i__main__
DBEntry
p0
(dp1
S'player_cards'
p2
(lp3
S'3'
p4
aS'9'
p5
asS'classification'
p6
(S'stand'
p7
F-0.16938
tp8
sS'dealer_card'
p9
S'5'
p10
sb.(i__main__
DBEntry
p0
(dp1
S'player_cards'
p2
(lp3
S'3'
p4
aS'9'
p5
asS'classification'
p6
(S'stand'
p7
F-0.15062
tp8
sS'dealer_card'
p9
S'6'
p10
sb.(i__main__
DBEntry
p0
(dp1
S'player_cards'
p2
(lp3
S'3'
p4
aS'9'
p5
asS'classification'
p6
(S'hit'
p7
F-0.24878
tp8
sS'dealer_card'
p9
S'7'
p10
sb.(i__main__
DBEntry
p0
(dp1
S'player_cards'
p2
(lp3
S'3'
p4
aS'9'
p5
asS'classification'
p6
(S'hit'
p7
F-0.30801
tp8
sS'dealer_card'
p9
S'8'
p10
sb.(i__main__
DBEntry
p0
(dp1
S'player_cards'
p2
(lp3
S'3'
p4
aS'9'
p5
asS'classification'
p6
(S'hit'
p7
F-0.36669
tp8
sS'dealer_card'
p9
g5
sb.(i__main__
DBEntry
p0
(dp1
S'player_cards'
p2
(lp3
S'3'
p4
aS'9'
p5
asS'classification'
p6
(S'hit'
p7
F-0.43662
tp8
sS'dealer_card'
p9
S'10'
p10
sb.(i__main__
DBEntry
p0
(dp1
S'player_cards'
p2
(lp3
S'3'
p4
aS'9'
p5
asS'classification'
p6
(S'hit'
p7
F-0.56983
tp8
sS'dealer_card'
p9
S'A'
p10
sb.(i__main__
DBEntry
p0
(dp1
S'player_cards'
p2
(lp3
S'3'
p4
aS'10'
p5
asS'classification'
p6
(S'stand'
p7
F-0.28976
tp8
sS'dealer_card'
p9
S'2'
p10
sb.(i__main__
DBEntry
p0
(dp1
S'player_cards'
p2
(lp3
S'3'
p4
aS'10'
p5
asS'classification'
p6
(S'stand'
p7
F-0.2527
tp8
sS'dealer_card'
p9
g4
sb.(i__main__
DBEntry
p0
(dp1
S'player_cards'
p2
(lp3
S'3'
p4
aS'10'
p5
asS'classification'
p6
(S'stand'
p7
F-0.21046
tp8
sS'dealer_card'
p9
S'4'
p10
sb.(i__main__
DBEntry
p0
(dp1
S'player_cards'
p2
(lp3
S'3'
p4
aS'10'
p5
asS'classification'
p6
(S'stand'
p7
F-0.16696
tp8
sS'dealer_card'
p9
S'5'
p10
sb.(i__main__
DBEntry
p0
(dp1
S'player_cards'
p2
(lp3
S'3'
p4
aS'10'
p5
asS'classification'
p6
(S'stand'
p7
F-0.15058
tp8
sS'dealer_card'
p9
S'6'
p10
sb.(i__main__
DBEntry
p0
(dp1
S'player_cards'
p2
(lp3
S'3'
p4
aS'10'
p5
asS'classification'
p6
(S'hit'
p7
F-0.28855
tp8
sS'dealer_card'
p9
S'7'
p10
sb.(i__main__
DBEntry
p0
(dp1
S'player_cards'
p2
(lp3
S'3'
p4
aS'10'
p5
asS'classification'
p6
(S'hit'
p7
F-0.34589
tp8
sS'dealer_card'
p9
S'8'
p10
sb.(i__main__
DBEntry
p0
(dp1
S'player_cards'
p2
(lp3
S'3'
p4
aS'10'
p5
asS'classification'
p6
(S'hit'
p7
F-0.40265
tp8
sS'dealer_card'
p9
S'9'
p10
sb.(i__main__
DBEntry
p0
(dp1
S'player_cards'
p2
(lp3
S'3'
p4
aS'10'
p5
asS'classification'
p6
(S'hit'
p7
F-0.46991
tp8
sS'dealer_card'
p9
g5
sb.(i__main__
DBEntry
p0
(dp1
S'player_cards'
p2
(lp3
S'3'
p4
aS'10'
p5
asS'classification'
p6
(S'hit'
p7
F-0.58702
tp8
sS'dealer_card'
p9
S'A'
p10
sb.(i__main__
DBEntry
p0
(dp1
S'player_cards'
p2
(lp3
S'3'
p4
aS'A'
p5
asS'classification'
p6
(S'hit'
p7
F-0.03163
tp8
sS'dealer_card'
p9
S'2'
p10
sb.(i__main__
DBEntry
p0
(dp1
S'player_cards'
p2
(lp3
S'3'
p4
aS'A'
p5
asS'classification'
p6
(S'double_down'
p7
F0.00212
tp8
sS'dealer_card'
p9
g4
sb.(i__main__
DBEntry
p0
(dp1
S'player_cards'
p2
(lp3
S'3'
p4
aS'A'
p5
asS'classification'
p6
(S'double_down'
p7
F0.05366
tp8
sS'dealer_card'
p9
S'4'
p10
sb.(i__main__
DBEntry
p0
(dp1
S'player_cards'
p2
(lp3
S'3'
p4
aS'A'
p5
asS'classification'
p6
(S'double_down'
p7
F0.12806
tp8
sS'dealer_card'
p9
S'5'
p10
sb.(i__main__
DBEntry
p0
(dp1
S'player_cards'
p2
(lp3
S'3'
p4
aS'A'
p5
asS'classification'
p6
(S'double_down'
p7
F0.19176
tp8
sS'dealer_card'
p9
S'6'
p10
sb.(i__main__
DBEntry
p0
(dp1
S'player_cards'
p2
(lp3
S'3'
p4
aS'A'
p5
asS'classification'
p6
(S'hit'
p7
F-0.0878
tp8
sS'dealer_card'
p9
S'7'
p10
sb.(i__main__
DBEntry
p0
(dp1
S'player_cards'
p2
(lp3
S'3'
p4
aS'A'
p5
asS'classification'
p6
(S'hit'
p7
F-0.15837
tp8
sS'dealer_card'
p9
S'8'
p10
sb.(i__main__
DBEntry
p0
(dp1
S'player_cards'
p2
(lp3
S'3'
p4
aS'A'
p5
asS'classification'
p6
(S'hit'
p7
F-0.22644
tp8
sS'dealer_card'
p9
S'9'
p10
sb.(i__main__
DBEntry
p0
(dp1
S'player_cards'
p2
(lp3
S'3'
p4
aS'A'
p5
asS'classification'
p6
(S'hit'
p7
F-0.30709
tp8
sS'dealer_card'
p9
S'10'
p10
sb.(i__main__
DBEntry
p0
(dp1
S'player_cards'
p2
(lp3
S'3'
p4
aS'A'
p5
asS'classification'
p6
(S'hit'
p7
F-0.501
tp8
sS'dealer_card'
p9
g5
sb.(i__main__
DBEntry
p0
(dp1
S'player_cards'
p2
(lp3
S'4'
p4
ag4
asS'classification'
p5
(S'hit'
p6
F-0.10178
tp7
sS'dealer_card'
p8
S'2'
p9
sb.(i__main__
DBEntry
p0
(dp1
S'player_cards'
p2
(lp3
S'4'
p4
ag4
asS'classification'
p5
(S'hit'
p6
F-0.0697
tp7
sS'dealer_card'
p8
S'3'
p9
sb.(i__main__
DBEntry
p0
(dp1
S'player_cards'
p2
(lp3
S'4'
p4
ag4
asS'classification'
p5
(S'hit'
p6
F-0.03699
tp7
sS'dealer_card'
p8
g4
sb.(i__main__
DBEntry
p0
(dp1
S'player_cards'
p2
(lp3
S'4'
p4
ag4
asS'classification'
p5
(S'double_down'
p6
F0.0156
tp7
sS'dealer_card'
p8
S'5'
p9
sb.(i__main__
DBEntry
p0
(dp1
S'player_cards'
p2
(lp3
S'4'
p4
ag4
asS'classification'
p5
(S'double_down'
p6
F0.07462
tp7
sS'dealer_card'
p8
S'6'
p9
sb.(i__main__
DBEntry
p0
(dp1
S'player_cards'
p2
(lp3
S'4'
p4
ag4
asS'classification'
p5
(S'hit'
p6
F-0.09124
tp7
sS'dealer_card'
p8
S'7'
p9
sb.(i__main__
DBEntry
p0
(dp1
S'player_cards'
p2
(lp3
S'4'
p4
ag4
asS'classification'
p5
(S'hit'
p6
F-0.22446
tp7
sS'dealer_card'
p8
S'8'
p9
sb.(i__main__
DBEntry
p0
(dp1
S'player_cards'
p2
(lp3
S'4'
p4
ag4
asS'classification'
p5
(S'hit'
p6
F-0.35834
tp7
sS'dealer_card'
p8
S'9'
p9
sb.(i__main__
DBEntry
p0
(dp1
S'player_cards'
p2
(lp3
S'4'
p4
ag4
asS'classification'
p5
(S'hit'
p6
F-0.41626
tp7
sS'dealer_card'
p8
S'10'
p9
sb.(i__main__
DBEntry
p0
(dp1
S'player_cards'
p2
(lp3
S'4'
p4
ag4
asS'classification'
p5
(S'hit'
p6
F-0.58532
tp7
sS'dealer_card'
p8
S'A'
p9
sb.(i__main__
DBEntry
p0
(dp1
S'player_cards'
p2
(lp3
S'4'
p4
aS'5'
p5
asS'classification'
p6
(S'double_down'
p7
F0.07268
tp8
sS'dealer_card'
p9
S'2'
p10
sb.(i__main__
DBEntry
p0
(dp1
S'player_cards'
p2
(lp3
S'4'
p4
aS'5'
p5
asS'classification'
p6
(S'double_down'
p7
F0.114
tp8
sS'dealer_card'
p9
S'3'
p10
sb.(i__main__
DBEntry
p0
(dp1
S'player_cards'
p2
(lp3
S'4'
p4
aS'5'
p5
asS'classification'
p6
(S'double_down'
p7
F0.18006
tp8
sS'dealer_card'
p9
g4
sb.(i__main__
DBEntry
p0
(dp1
S'player_cards'
p2
(lp3
S'4'
p4
aS'5'
p5
asS'classification'
p6
(S'double_down'
p7
F0.2496
tp8
sS'dealer_card'
p9
g5
sb.(i__main__
DBEntry
p0
(dp1
S'player_cards'
p2
(lp3
S'4'
p4
aS'5'
p5
asS'classification'
p6
(S'double_down'
p7
F0.32174
tp8
sS'dealer_card'
p9
S'6'
p10
sb.(i__main__
DBEntry
p0
(dp1
S'player_cards'
p2
(lp3
S'4'
p4
aS'5'
p5
asS'classification'
p6
(S'double_down'
p7
F0.10052
tp8
sS'dealer_card'
p9
S'7'
p10
sb.(i__main__
DBEntry
p0
(dp1
S'player_cards'
p2
(lp3
S'4'
p4
aS'5'
p5
asS'classification'
p6
(S'hit'
p7
F-0.01208
tp8
sS'dealer_card'
p9
S'8'
p10
sb.(i__main__
DBEntry
p0
(dp1
S'player_cards'
p2
(lp3
S'4'
p4
aS'5'
p5
asS'classification'
p6
(S'hit'
p7
F-0.15186
tp8
sS'dealer_card'
p9
S'9'
p10
sb.(i__main__
DBEntry
p0
(dp1
S'player_cards'
p2
(lp3
S'4'
p4
aS'5'
p5
asS'classification'
p6
(S'hit'
p7
F-0.29409
tp8
sS'dealer_card'
p9
S'10'
p10
sb.(i__main__
DBEntry
p0
(dp1
S'player_cards'
p2
(lp3
S'4'
p4
aS'5'
p5
asS'classification'
p6
(S'hit'
p7
F-0.46287
tp8
sS'dealer_card'
p9
S'A'
p10
sb.(i__main__
DBEntry
p0
(dp1
S'player_cards'
p2
(lp3
S'4'
p4
aS'6'
p5
asS'classification'
p6
(S'double_down'
p7
F0.35114
tp8
sS'dealer_card'
p9
S'2'
p10
sb.(i__main__
DBEntry
p0
(dp1
S'player_cards'
p2
(lp3
S'4'
p4
aS'6'
p5
asS'classification'
p6
(S'double_down'
p7
F0.41208
tp8
sS'dealer_card'
p9
S'3'
p10
sb.(i__main__
DBEntry
p0
(dp1
S'player_cards'
p2
(lp3
S'4'
p4
aS'6'
p5
asS'classification'
p6
(S'double_down'
p7
F0.46176
tp8
sS'dealer_card'
p9
g4
sb.(i__main__
DBEntry
p0
(dp1
S'player_cards'
p2
(lp3
S'4'
p4
aS'6'
p5
asS'classification'
p6
(S'double_down'
p7
F0.51018
tp8
sS'dealer_card'
p9
S'5'
p10
sb.(i__main__
DBEntry
p0
(dp1
S'player_cards'
p2
(lp3
S'4'
p4
aS'6'
p5
asS'classification'
p6
(S'double_down'
p7
F0.57914
tp8
sS'dealer_card'
p9
g5
sb.(i__main__
DBEntry
p0
(dp1
S'player_cards'
p2
(lp3
S'4'
p4
aS'6'
p5
asS'classification'
p6
(S'double_down'
p7
F0.40808
tp8
sS'dealer_card'
p9
S'7'
p10
sb.(i__main__
DBEntry
p0
(dp1
S'player_cards'
p2
(lp3
S'4'
p4
aS'6'
p5
asS'classification'
p6
(S'double_down'
p7
F0.28702
tp8
sS'dealer_card'
p9
S'8'
p10
sb.(i__main__
DBEntry
p0
(dp1
S'player_cards'
p2
(lp3
S'4'
p4
aS'6'
p5
asS'classification'
p6
(S'double_down'
p7
F0.14346
tp8
sS'dealer_card'
p9
S'9'
p10
sb.(i__main__
DBEntry
p0
(dp1
S'player_cards'
p2
(lp3
S'4'
p4
aS'6'
p5
asS'classification'
p6
(S'hit'
p7
F-0.07288
tp8
sS'dealer_card'
p9
S'10'
p10
sb.(i__main__
DBEntry
p0
(dp1
S'player_cards'
p2
(lp3
S'4'
p4
aS'6'
p5
asS'classification'
p6
(S'hit'
p7
F-0.29172
tp8
sS'dealer_card'
p9
S'A'
p10
sb.(i__main__
DBEntry
p0
(dp1
S'player_cards'
p2
(lp3
S'4'
p4
aS'7'
p5
asS'classification'
p6
(S'double_down'
p7
F0.47416
tp8
sS'dealer_card'
p9
S'2'
p10
sb.(i__main__
DBEntry
p0
(dp1
S'player_cards'
p2
(lp3
S'4'
p4
aS'7'
p5
asS'classification'
p6
(S'double_down'
p7
F0.52142
tp8
sS'dealer_card'
p9
S'3'
p10
sb.(i__main__
DBEntry
p0
(dp1
S'player_cards'
p2
(lp3
S'4'
p4
aS'7'
p5
asS'classification'
p6
(S'double_down'
p7
F0.56688
tp8
sS'dealer_card'
p9
g4
sb.(i__main__
DBEntry
p0
(dp1
S'player_cards'
p2
(lp3
S'4'
p4
aS'7'
p5
asS'classification'
p6
(S'double_down'
p7
F0.60806
tp8
sS'dealer_card'
p9
S'5'
p10
sb.(i__main__
DBEntry
p0
(dp1
S'player_cards'
p2
(lp3
S'4'
p4
aS'7'
p5
asS'classification'
p6
(S'double_down'
p7
F0.66808
tp8
sS'dealer_card'
p9
S'6'
p10
sb.(i__main__
DBEntry
p0
(dp1
S'player_cards'
p2
(lp3
S'4'
p4
aS'7'
p5
asS'classification'
p6
(S'double_down'
p7
F0.46882
tp8
sS'dealer_card'
p9
g5
sb.(i__main__
DBEntry
p0
(dp1
S'player_cards'
p2
(lp3
S'4'
p4
aS'7'
p5
asS'classification'
p6
(S'double_down'
p7
F0.34398
tp8
sS'dealer_card'
p9
S'8'
p10
sb.(i__main__
DBEntry
p0
(dp1
S'player_cards'
p2
(lp3
S'4'
p4
aS'7'
p5
asS'classification'
p6
(S'double_down'
p7
F0.23148
tp8
sS'dealer_card'
p9
S'9'
p10
sb.(i__main__
DBEntry
p0
(dp1
S'player_cards'
p2
(lp3
S'4'
p4
aS'7'
p5
asS'classification'
p6
(S'double_down'
p7
F0.06552
tp8
sS'dealer_card'
p9
S'10'
p10
sb.(i__main__
DBEntry
p0
(dp1
S'player_cards'
p2
(lp3
S'4'
p4
aS'7'
p5
asS'classification'
p6
(S'hit'
p7
F-0.17203
tp8
sS'dealer_card'
p9
S'A'
p10
sb.(i__main__
DBEntry
p0
(dp1
S'player_cards'
p2
(lp3
S'4'
p4
aS'8'
p5
asS'classification'
p6
(S'hit'
p7
F-0.2561
tp8
sS'dealer_card'
p9
S'2'
p10
sb.(i__main__
DBEntry
p0
(dp1
S'player_cards'
p2
(lp3
S'4'
p4
aS'8'
p5
asS'classification'
p6
(S'hit'
p7
F-0.23823
tp8
sS'dealer_card'
p9
S'3'
p10
sb.(i__main__
DBEntry
p0
(dp1
S'player_cards'
p2
(lp3
S'4'
p4
aS'8'
p5
asS'classification'
p6
(S'stand'
p7
F-0.21254
tp8
sS'dealer_card'
p9
g4
sb.(i__main__
DBEntry
p0
(dp1
S'player_cards'
p2
(lp3
S'4'
p4
aS'8'
p5
asS'classification'
p6
(S'stand'
p7
F-0.17104
tp8
sS'dealer_card'
p9
S'5'
p10
sb.(i__main__
DBEntry
p0
(dp1
S'player_cards'
p2
(lp3
S'4'
p4
aS'8'
p5
asS'classification'
p6
(S'stand'
p7
F-0.15386
tp8
sS'dealer_card'
p9
S'6'
p10
sb.(i__main__
DBEntry
p0
(dp1
S'player_cards'
p2
(lp3
S'4'
p4
aS'8'
p5
asS'classification'
p6
(S'hit'
p7
F-0.24902
tp8
sS'dealer_card'
p9
S'7'
p10
sb.(i__main__
DBEntry
p0
(dp1
S'player_cards'
p2
(lp3
S'4'
p4
aS'8'
p5
asS'classification'
p6
(S'hit'
p7
F-0.30418
tp8
sS'dealer_card'
p9
g5
sb.(i__main__
DBEntry
p0
(dp1
S'player_cards'
p2
(lp3
S'4'
p4
aS'8'
p5
asS'classification'
p6
(S'hit'
p7
F-0.37084
tp8
sS'dealer_card'
p9
S'9'
p10
sb.(i__main__
DBEntry
p0
(dp1
S'player_cards'
p2
(lp3
S'4'
p4
aS'8'
p5
asS'classification'
p6
(S'hit'
p7
F-0.43929
tp8
sS'dealer_card'
p9
S'10'
p10
sb.(i__main__
DBEntry
p0
(dp1
S'player_cards'
p2
(lp3
S'4'
p4
aS'8'
p5
asS'classification'
p6
(S'hit'
p7
F-0.57057
tp8
sS'dealer_card'
p9
S'A'
p10
sb.(i__main__
DBEntry
p0
(dp1
S'player_cards'
p2
(lp3
S'4'
p4
aS'9'
p5
asS'classification'
p6
(S'stand'
p7
F-0.28878
tp8
sS'dealer_card'
p9
S'2'
p10
sb.(i__main__
DBEntry
p0
(dp1
S'player_cards'
p2
(lp3
S'4'
p4
aS'9'
p5
asS'classification'
p6
(S'stand'
p7
F-0.24724
tp8
sS'dealer_card'
p9
S'3'
p10
sb.(i__main__
DBEntry
p0
(dp1
S'player_cards'
p2
(lp3
S'4'
p4
aS'9'
p5
asS'classification'
p6
(S'stand'
p7
F-0.21054
tp8
sS'dealer_card'
p9
g4
sb.(i__main__
DBEntry
p0
(dp1
S'player_cards'
p2
(lp3
S'4'
p4
aS'9'
p5
asS'classification'
p6
(S'stand'
p7
F-0.16512
tp8
sS'dealer_card'
p9
S'5'
p10
sb.(i__main__
DBEntry
p0
(dp1
S'player_cards'
p2
(lp3
S'4'
p4
aS'9'
p5
asS'classification'
p6
(S'stand'
p7
F-0.15602
tp8
sS'dealer_card'
p9
S'6'
p10
sb.(i__main__
DBEntry
p0
(dp1
S'player_cards'
p2
(lp3
S'4'
p4
aS'9'
p5
asS'classification'
p6
(S'hit'
p7
F-0.29255
tp8
sS'dealer_card'
p9
S'7'
p10
sb.(i__main__
DBEntry
p0
(dp1
S'player_cards'
p2
(lp3
S'4'
p4
aS'9'
p5
asS'classification'
p6
(S'hit'
p7
F-0.33907
tp8
sS'dealer_card'
p9
S'8'
p10
sb.(i__main__
DBEntry
p0
(dp1
S'player_cards'
p2
(lp3
S'4'
p4
aS'9'
p5
asS'classification'
p6
(S'hit'
p7
F-0.39681
tp8
sS'dealer_card'
p9
g5
sb.(i__main__
DBEntry
p0
(dp1
S'player_cards'
p2
(lp3
S'4'
p4
aS'9'
p5
asS'classification'
p6
(S'hit'
p7
F-0.4706
tp8
sS'dealer_card'
p9
S'10'
p10
sb.(i__main__
DBEntry
p0
(dp1
S'player_cards'
p2
(lp3
S'4'
p4
aS'9'
p5
asS'classification'
p6
(S'hit'
p7
F-0.5882
tp8
sS'dealer_card'
p9
S'A'
p10
sb.(i__main__
DBEntry
p0
(dp1
S'player_cards'
p2
(lp3
S'4'
p4
aS'10'
p5
asS'classification'
p6
(S'stand'
p7
F-0.29576
tp8
sS'dealer_card'
p9
S'2'
p10
sb.(i__main__
DBEntry
p0
(dp1
S'player_cards'
p2
(lp3
S'4'
p4
aS'10'
p5
asS'classification'
p6
(S'stand'
p7
F-0.25628
tp8
sS'dealer_card'
p9
S'3'
p10
sb.(i__main__
DBEntry
p0
(dp1
S'player_cards'
p2
(lp3
S'4'
p4
aS'10'
p5
asS'classification'
p6
(S'stand'
p7
F-0.21744
tp8
sS'dealer_card'
p9
g4
sb.(i__main__
DBEntry
p0
(dp1
S'player_cards'
p2
(lp3
S'4'
p4
aS'10'
p5
asS'classification'
p6
(S'stand'
p7
F-0.17026
tp8
sS'dealer_card'
p9
S'5'
p10
sb.(i__main__
DBEntry
p0
(dp1
S'player_cards'
p2
(lp3
S'4'
p4
aS'10'
p5
asS'classification'
p6
(S'stand'
p7
F-0.15756
tp8
sS'dealer_card'
p9
S'6'
p10
sb.(i__main__
DBEntry
p0
(dp1
S'player_cards'
p2
(lp3
S'4'
p4
aS'10'
p5
asS'classification'
p6
(S'hit'
p7
F-0.33491
tp8
sS'dealer_card'
p9
S'7'
p10
sb.(i__main__
DBEntry
p0
(dp1
S'player_cards'
p2
(lp3
S'4'
p4
aS'10'
p5
asS'classification'
p6
(S'hit'
p7
F-0.38023
tp8
sS'dealer_card'
p9
S'8'
p10
sb.(i__main__
DBEntry
p0
(dp1
S'player_cards'
p2
(lp3
S'4'
p4
aS'10'
p5
asS'classification'
p6
(S'hit'
p7
F-0.44142
tp8
sS'dealer_card'
p9
S'9'
p10
sb.(i__main__
DBEntry
p0
(dp1
S'player_cards'
p2
(lp3
S'4'
p4
aS'10'
p5
asS'classification'
p6
(S'hit'
p7
F-0.50489
tp8
sS'dealer_card'
p9
g5
sb.(i__main__
DBEntry
p0
(dp1
S'player_cards'
p2
(lp3
S'4'
p4
aS'10'
p5
asS'classification'
p6
(S'hit'
p7
F-0.60548
tp8
sS'dealer_card'
p9
S'A'
p10
sb.(i__main__
DBEntry
p0
(dp1
S'player_cards'
p2
(lp3
S'4'
p4
aS'A'
p5
asS'classification'
p6
(S'hit'
p7
F-0.03185
tp8
sS'dealer_card'
p9
S'2'
p10
sb.(i__main__
DBEntry
p0
(dp1
S'player_cards'
p2
(lp3
S'4'
p4
aS'A'
p5
asS'classification'
p6
(S'hit'
p7
F-0.00628
tp8
sS'dealer_card'
p9
S'3'
p10
sb.(i__main__
DBEntry
p0
(dp1
S'player_cards'
p2
(lp3
S'4'
p4
aS'A'
p5
asS'classification'
p6
(S'double_down'
p7
F0.06206
tp8
sS'dealer_card'
p9
g4
sb.(i__main__
DBEntry
p0
(dp1
S'player_cards'
p2
(lp3
S'4'
p4
aS'A'
p5
asS'classification'
p6
(S'double_down'
p7
F0.12278
tp8
sS'dealer_card'
p9
S'5'
p10
sb.(i__main__
DBEntry
p0
(dp1
S'player_cards'
p2
(lp3
S'4'
p4
aS'A'
p5
asS'classification'
p6
(S'double_down'
p7
F0.18654
tp8
sS'dealer_card'
p9
S'6'
p10
sb.(i__main__
DBEntry
p0
(dp1
S'player_cards'
p2
(lp3
S'4'
p4
aS'A'
p5
asS'classification'
p6
(S'hit'
p7
F-0.09443
tp8
sS'dealer_card'
p9
S'7'
p10
sb.(i__main__
DBEntry
p0
(dp1
S'player_cards'
p2
(lp3
S'4'
p4
aS'A'
p5
asS'classification'
p6
(S'hit'
p7
F-0.15577
tp8
sS'dealer_card'
p9
S'8'
p10
sb.(i__main__
DBEntry
p0
(dp1
S'player_cards'
p2
(lp3
S'4'
p4
aS'A'
p5
asS'classification'
p6
(S'hit'
p7
F-0.22108
tp8
sS'dealer_card'
p9
S'9'
p10
sb.(i__main__
DBEntry
p0
(dp1
S'player_cards'
p2
(lp3
S'4'
p4
aS'A'
p5
asS'classification'
p6
(S'hit'
p7
F-0.3061
tp8
sS'dealer_card'
p9
S'10'
p10
sb.(i__main__
DBEntry
p0
(dp1
S'player_cards'
p2
(lp3
S'4'
p4
aS'A'
p5
asS'classification'
p6
(S'hit'
p7
F-0.50323
tp8
sS'dealer_card'
p9
g5
sb.(i__main__
DBEntry
p0
(dp1
S'player_cards'
p2
(lp3
S'5'
p4
ag4
asS'classification'
p5
(S'double_down'
p6
F0.35934
tp7
sS'dealer_card'
p8
S'2'
p9
sb.(i__main__
DBEntry
p0
(dp1
S'player_cards'
p2
(lp3
S'5'
p4
ag4
asS'classification'
p5
(S'double_down'
p6
F0.40952
tp7
sS'dealer_card'
p8
S'3'
p9
sb.(i__main__
DBEntry
p0
(dp1
S'player_cards'
p2
(lp3
S'5'
p4
ag4
asS'classification'
p5
(S'double_down'
p6
F0.46978
tp7
sS'dealer_card'
p8
S'4'
p9
sb.(i__main__
DBEntry
p0
(dp1
S'player_cards'
p2
(lp3
S'5'
p4
ag4
asS'classification'
p5
(S'double_down'
p6
F0.51042
tp7
sS'dealer_card'
p8
g4
sb.(i__main__
DBEntry
p0
(dp1
S'player_cards'
p2
(lp3
S'5'
p4
ag4
asS'classification'
p5
(S'double_down'
p6
F0.57636
tp7
sS'dealer_card'
p8
S'6'
p9
sb.(i__main__
DBEntry
p0
(dp1
S'player_cards'
p2
(lp3
S'5'
p4
ag4
asS'classification'
p5
(S'double_down'
p6
F0.38582
tp7
sS'dealer_card'
p8
S'7'
p9
sb.(i__main__
DBEntry
p0
(dp1
S'player_cards'
p2
(lp3
S'5'
p4
ag4
asS'classification'
p5
(S'double_down'
p6
F0.2974
tp7
sS'dealer_card'
p8
S'8'
p9
sb.(i__main__
DBEntry
p0
(dp1
S'player_cards'
p2
(lp3
S'5'
p4
ag4
asS'classification'
p5
(S'double_down'
p6
F0.13564
tp7
sS'dealer_card'
p8
S'9'
p9
sb.(i__main__
DBEntry
p0
(dp1
S'player_cards'
p2
(lp3
S'5'
p4
ag4
asS'classification'
p5
(S'hit'
p6
F-0.07584
tp7
sS'dealer_card'
p8
S'10'
p9
sb.(i__main__
DBEntry
p0
(dp1
S'player_cards'
p2
(lp3
S'5'
p4
ag4
asS'classification'
p5
(S'hit'
p6
F-0.28927
tp7
sS'dealer_card'
p8
S'A'
p9
sb.(i__main__
DBEntry
p0
(dp1
S'player_cards'
p2
(lp3
S'5'
p4
aS'6'
p5
asS'classification'
p6
(S'double_down'
p7
F0.47042
tp8
sS'dealer_card'
p9
S'2'
p10
sb.(i__main__
DBEntry
p0
(dp1
S'player_cards'
p2
(lp3
S'5'
p4
aS'6'
p5
asS'classification'
p6
(S'double_down'
p7
F0.51386
tp8
sS'dealer_card'
p9
S'3'
p10
sb.(i__main__
DBEntry
p0
(dp1
S'player_cards'
p2
(lp3
S'5'
p4
aS'6'
p5
asS'classification'
p6
(S'double_down'
p7
F0.56282
tp8
sS'dealer_card'
p9
S'4'
p10
sb.(i__main__
DBEntry
p0
(dp1
S'player_cards'
p2
(lp3
S'5'
p4
aS'6'
p5
asS'classification'
p6
(S'double_down'
p7
F0.61044
tp8
sS'dealer_card'
p9
g4
sb.(i__main__
DBEntry
p0
(dp1
S'player_cards'
p2
(lp3
S'5'
p4
aS'6'
p5
asS'classification'
p6
(S'double_down'
p7
F0.6604
tp8
sS'dealer_card'
p9
g5
sb.(i__main__
DBEntry
p0
(dp1
S'player_cards'
p2
(lp3
S'5'
p4
aS'6'
p5
asS'classification'
p6
(S'double_down'
p7
F0.46284
tp8
sS'dealer_card'
p9
S'7'
p10
sb.(i__main__
DBEntry
p0
(dp1
S'player_cards'
p2
(lp3
S'5'
p4
aS'6'
p5
asS'classification'
p6
(S'double_down'
p7
F0.34514
tp8
sS'dealer_card'
p9
S'8'
p10
sb.(i__main__
DBEntry
p0
(dp1
S'player_cards'
p2
(lp3
S'5'
p4
aS'6'
p5
asS'classification'
p6
(S'double_down'
p7
F0.22994
tp8
sS'dealer_card'
p9
S'9'
p10
sb.(i__main__
DBEntry
p0
(dp1
S'player_cards'
p2
(lp3
S'5'
p4
aS'6'
p5
asS'classification'
p6
(S'double_down'
p7
F0.06796
tp8
sS'dealer_card'
p9
S'10'
p10
sb.(i__main__
DBEntry
p0
(dp1
S'player_cards'
p2
(lp3
S'5'
p4
aS'6'
p5
asS'classification'
p6
(S'hit'
p7
F-0.17342
tp8
sS'dealer_card'
p9
S'A'
p10
sb.(i__main__
DBEntry
p0
(dp1
S'player_cards'
p2
(lp3
S'5'
p4
aS'7'
p5
asS'classification'
p6
(S'hit'
p7
F-0.25457
tp8
sS'dealer_card'
p9
S'2'
p10
sb.(i__main__
DBEntry
p0
(dp1
S'player_cards'
p2
(lp3
S'5'
p4
aS'7'
p5
asS'classification'
p6
(S'hit'
p7
F-0.227
tp8
sS'dealer_card'
p9
S'3'
p10
sb.(i__main__
DBEntry
p0
(dp1
S'player_cards'
p2
(lp3
S'5'
p4
aS'7'
p5
asS'classification'
p6
(S'stand'
p7
F-0.20958
tp8
sS'dealer_card'
p9
S'4'
p10
sb.(i__main__
DBEntry
p0
(dp1
S'player_cards'
p2
(lp3
S'5'
p4
aS'7'
p5
asS'classification'
p6
(S'stand'
p7
F-0.16708
tp8
sS'dealer_card'
p9
g4
sb.(i__main__
DBEntry
p0
(dp1
S'player_cards'
p2
(lp3
S'5'
p4
aS'7'
p5
asS'classification'
p6
(S'stand'
p7
F-0.15854
tp8
sS'dealer_card'
p9
S'6'
p10
sb.(i__main__
DBEntry
p0
(dp1
S'player_cards'
p2
(lp3
S'5'
p4
aS'7'
p5
asS'classification'
p6
(S'hit'
p7
F-0.25261
tp8
sS'dealer_card'
p9
g5
sb.(i__main__
DBEntry
p0
(dp1
S'player_cards'
p2
(lp3
S'5'
p4
aS'7'
p5
asS'classification'
p6
(S'hit'
p7
F-0.31213
tp8
sS'dealer_card'
p9
S'8'
p10
sb.(i__main__
DBEntry
p0
(dp1
S'player_cards'
p2
(lp3
S'5'
p4
aS'7'
p5
asS'classification'
p6
(S'hit'
p7
F-0.36946
tp8
sS'dealer_card'
p9
S'9'
p10
sb.(i__main__
DBEntry
p0
(dp1
S'player_cards'
p2
(lp3
S'5'
p4
aS'7'
p5
asS'classification'
p6
(S'hit'
p7
F-0.44041
tp8
sS'dealer_card'
p9
S'10'
p10
sb.(i__main__
DBEntry
p0
(dp1
S'player_cards'
p2
(lp3
S'5'
p4
aS'7'
p5
asS'classification'
p6
(S'hit'
p7
F-0.57061
tp8
sS'dealer_card'
p9
S'A'
p10
sb.(i__main__
DBEntry
p0
(dp1
S'player_cards'
p2
(lp3
S'5'
p4
aS'8'
p5
asS'classification'
p6
(S'stand'
p7
F-0.2897
tp8
sS'dealer_card'
p9
S'2'
p10
sb.(i__main__
DBEntry
p0
(dp1
S'player_cards'
p2
(lp3
S'5'
p4
aS'8'
p5
asS'classification'
p6
(S'stand'
p7
F-0.25698
tp8
sS'dealer_card'
p9
S'3'
p10
sb.(i__main__
DBEntry
p0
(dp1
S'player_cards'
p2
(lp3
S'5'
p4
aS'8'
p5
asS'classification'
p6
(S'stand'
p7
F-0.21364
tp8
sS'dealer_card'
p9
S'4'
p10
sb.(i__main__
DBEntry
p0
(dp1
S'player_cards'
p2
(lp3
S'5'
p4
aS'8'
p5
asS'classification'
p6
(S'stand'
p7
F-0.16266
tp8
sS'dealer_card'
p9
g4
sb.(i__main__
DBEntry
p0
(dp1
S'player_cards'
p2
(lp3
S'5'
p4
aS'8'
p5
asS'classification'
p6
(S'stand'
p7
F-0.15852
tp8
sS'dealer_card'
p9
S'6'
p10
sb.(i__main__
DBEntry
p0
(dp1
S'player_cards'
p2
(lp3
S'5'
p4
aS'8'
p5
asS'classification'
p6
(S'hit'
p7
F-0.2939
tp8
sS'dealer_card'
p9
S'7'
p10
sb.(i__main__
DBEntry
p0
(dp1
S'player_cards'
p2
(lp3
S'5'
p4
aS'8'
p5
asS'classification'
p6
(S'hit'
p7
F-0.3509
tp8
sS'dealer_card'
p9
g5
sb.(i__main__
DBEntry
p0
(dp1
S'player_cards'
p2
(lp3
S'5'
p4
aS'8'
p5
asS'classification'
p6
(S'hit'
p7
F-0.40874
tp8
sS'dealer_card'
p9
S'9'
p10
sb.(i__main__
DBEntry
p0
(dp1
S'player_cards'
p2
(lp3
S'5'
p4
aS'8'
p5
asS'classification'
p6
(S'hit'
p7
F-0.47287
tp8
sS'dealer_card'
p9
S'10'
p10
sb.(i__main__
DBEntry
p0
(dp1
S'player_cards'
p2
(lp3
S'5'
p4
aS'8'
p5
asS'classification'
p6
(S'hit'
p7
F-0.58745
tp8
sS'dealer_card'
p9
S'A'
p10
sb.(i__main__
DBEntry
p0
(dp1
S'player_cards'
p2
(lp3
S'5'
p4
aS'9'
p5
asS'classification'
p6
(S'stand'
p7
F-0.28842
tp8
sS'dealer_card'
p9
S'2'
p10
sb.(i__main__
DBEntry
p0
(dp1
S'player_cards'
p2
(lp3
S'5'
p4
aS'9'
p5
asS'classification'
p6
(S'stand'
p7
F-0.25202
tp8
sS'dealer_card'
p9
S'3'
p10
sb.(i__main__
DBEntry
p0
(dp1
S'player_cards'
p2
(lp3
S'5'
p4
aS'9'
p5
asS'classification'
p6
(S'stand'
p7
F-0.21508
tp8
sS'dealer_card'
p9
S'4'
p10
sb.(i__main__
DBEntry
p0
(dp1
S'player_cards'
p2
(lp3
S'5'
p4
aS'9'
p5
asS'classification'
p6
(S'stand'
p7
F-0.16722
tp8
sS'dealer_card'
p9
g4
sb.(i__main__
DBEntry
p0
(dp1
S'player_cards'
p2
(lp3
S'5'
p4
aS'9'
p5
asS'classification'
p6
(S'stand'
p7
F-0.14898
tp8
sS'dealer_card'
p9
S'6'
p10
sb.(i__main__
DBEntry
p0
(dp1
S'player_cards'
p2
(lp3
S'5'
p4
aS'9'
p5
asS'classification'
p6
(S'hit'
p7
F-0.33482
tp8
sS'dealer_card'
p9
S'7'
p10
sb.(i__main__
DBEntry
p0
(dp1
S'player_cards'
p2
(lp3
S'5'
p4
aS'9'
p5
asS'classification'
p6
(S'hit'
p7
F-0.37784
tp8
sS'dealer_card'
p9
S'8'
p10
sb.(i__main__
DBEntry
p0
(dp1
S'player_cards'
p2
(lp3
S'5'
p4
aS'9'
p5
asS'classification'
p6
(S'hit'
p7
F-0.43857
tp8
sS'dealer_card'
p9
g5
sb.(i__main__
DBEntry
p0
(dp1
S'player_cards'
p2
(lp3
S'5'
p4
aS'9'
p5
asS'classification'
p6
(S'hit'
p7
F-0.5055
tp8
sS'dealer_card'
p9
S'10'
p10
sb.(i__main__
DBEntry
p0
(dp1
S'player_cards'
p2
(lp3
S'5'
p4
aS'9'
p5
asS'classification'
p6
(S'hit'
p7
F-0.60407
tp8
sS'dealer_card'
p9
S'A'
p10
sb.(i__main__
DBEntry
p0
(dp1
S'player_cards'
p2
(lp3
S'5'
p4
aS'10'
p5
asS'classification'
p6
(S'stand'
p7
F-0.28904
tp8
sS'dealer_card'
p9
S'2'
p10
sb.(i__main__
DBEntry
p0
(dp1
S'player_cards'
p2
(lp3
S'5'
p4
aS'10'
p5
asS'classification'
p6
(S'stand'
p7
F-0.25108
tp8
sS'dealer_card'
p9
S'3'
p10
sb.(i__main__
DBEntry
p0
(dp1
S'player_cards'
p2
(lp3
S'5'
p4
aS'10'
p5
asS'classification'
p6
(S'stand'
p7
F-0.21046
tp8
sS'dealer_card'
p9
S'4'
p10
sb.(i__main__
DBEntry
p0
(dp1
S'player_cards'
p2
(lp3
S'5'
p4
aS'10'
p5
asS'classification'
p6
(S'stand'
p7
F-0.16612
tp8
sS'dealer_card'
p9
g4
sb.(i__main__
DBEntry
p0
(dp1
S'player_cards'
p2
(lp3
S'5'
p4
aS'10'
p5
asS'classification'
p6
(S'stand'
p7
F-0.154
tp8
sS'dealer_card'
p9
S'6'
p10
sb.(i__main__
DBEntry
p0
(dp1
S'player_cards'
p2
(lp3
S'5'
p4
aS'10'
p5
asS'classification'
p6
(S'hit'
p7
F-0.37498
tp8
sS'dealer_card'
p9
S'7'
p10
sb.(i__main__
DBEntry
p0
(dp1
S'player_cards'
p2
(lp3
S'5'
p4
aS'10'
p5
asS'classification'
p6
(S'hit'
p7
F-0.42099
tp8
sS'dealer_card'
p9
S'8'
p10
sb.(i__main__
DBEntry
p0
(dp1
S'player_cards'
p2
(lp3
S'5'
p4
aS'10'
p5
asS'classification'
p6
(S'hit'
p7
F-0.47677
tp8
sS'dealer_card'
p9
S'9'
p10
sb.(i__main__
DBEntry
p0
(dp1
S'player_cards'
p2
(lp3
S'5'
p4
aS'10'
p5
asS'classification'
p6
(S'hit'
p7
F-0.53777
tp8
sS'dealer_card'
p9
g5
sb.(i__main__
DBEntry
p0
(dp1
S'player_cards'
p2
(lp3
S'5'
p4
aS'10'
p5
asS'classification'
p6
(S'hit'
p7
F-0.62503
tp8
sS'dealer_card'
p9
S'A'
p10
sb.(i__main__
DBEntry
p0
(dp1
S'player_cards'
p2
(lp3
S'5'
p4
aS'A'
p5
asS'classification'
p6
(S'hit'
p7
F-0.03587
tp8
sS'dealer_card'
p9
S'2'
p10
sb.(i__main__
DBEntry
p0
(dp1
S'player_cards'
p2
(lp3
S'5'
p4
aS'A'
p5
asS'classification'
p6
(S'hit'
p7
F-0.00072
tp8
sS'dealer_card'
p9
S'3'
p10
sb.(i__main__
DBEntry
p0
(dp1
S'player_cards'
p2
(lp3
S'5'
p4
aS'A'
p5
asS'classification'
p6
(S'double_down'
p7
F0.05104
tp8
sS'dealer_card'
p9
S'4'
p10
sb.(i__main__
DBEntry
p0
(dp1
S'player_cards'
p2
(lp3
S'5'
p4
aS'A'
p5
asS'classification'
p6
(S'double_down'
p7
F0.12556
tp8
sS'dealer_card'
p9
g4
sb.(i__main__
DBEntry
p0
(dp1
S'player_cards'
p2
(lp3
S'5'
p4
aS'A'
p5
asS'classification'
p6
(S'double_down'
p7
F0.1876
tp8
sS'dealer_card'
p9
S'6'
p10
sb.(i__main__
DBEntry
p0
(dp1
S'player_cards'
p2
(lp3
S'5'
p4
aS'A'
p5
asS'classification'
p6
(S'hit'
p7
F-0.0953
tp8
sS'dealer_card'
p9
S'7'
p10
sb.(i__main__
DBEntry
p0
(dp1
S'player_cards'
p2
(lp3
S'5'
p4
aS'A'
p5
asS'classification'
p6
(S'hit'
p7
F-0.16102
tp8
sS'dealer_card'
p9
S'8'
p10
sb.(i__main__
DBEntry
p0
(dp1
S'player_cards'
p2
(lp3
S'5'
p4
aS'A'
p5
asS'classification'
p6
(S'hit'
p7
F-0.22643
tp8
sS'dealer_card'
p9
S'9'
p10
sb.(i__main__
DBEntry
p0
(dp1
S'player_cards'
p2
(lp3
S'5'
p4
aS'A'
p5
asS'classification'
p6
(S'hit'
p7
F-0.30555
tp8
sS'dealer_card'
p9
S'10'
p10
sb.(i__main__
DBEntry
p0
(dp1
S'player_cards'
p2
(lp3
S'5'
p4
aS'A'
p5
asS'classification'
p6
(S'hit'
p7
F-0.4986
tp8
sS'dealer_card'
p9
g5
sb.(i__main__
DBEntry
p0
(dp1
S'player_cards'
p2
(lp3
S'6'
p4
ag4
asS'classification'
p5
(S'hit'
p6
F-0.25468
tp7
sS'dealer_card'
p8
S'2'
p9
sb.(i__main__
DBEntry
p0
(dp1
S'player_cards'
p2
(lp3
S'6'
p4
ag4
asS'classification'
p5
(S'hit'
p6
F-0.23366
tp7
sS'dealer_card'
p8
S'3'
p9
sb.(i__main__
DBEntry
p0
(dp1
S'player_cards'
p2
(lp3
S'6'
p4
ag4
asS'classification'
p5
(S'hit'
p6
F-0.20945
tp7
sS'dealer_card'
p8
S'4'
p9
sb.(i__main__
DBEntry
p0
(dp1
S'player_cards'
p2
(lp3
S'6'
p4
ag4
asS'classification'
p5
(S'stand'
p6
F-0.16486
tp7
sS'dealer_card'
p8
S'5'
p9
sb.(i__main__
DBEntry
p0
(dp1
S'player_cards'
p2
(lp3
S'6'
p4
ag4
asS'classification'
p5
(S'stand'
p6
F-0.15336
tp7
sS'dealer_card'
p8
g4
sb.(i__main__
DBEntry
p0
(dp1
S'player_cards'
p2
(lp3
S'6'
p4
ag4
asS'classification'
p5
(S'hit'
p6
F-0.24886
tp7
sS'dealer_card'
p8
S'7'
p9
sb.(i__main__
DBEntry
p0
(dp1
S'player_cards'
p2
(lp3
S'6'
p4
ag4
asS'classification'
p5
(S'hit'
p6
F-0.30971
tp7
sS'dealer_card'
p8
S'8'
p9
sb.(i__main__
DBEntry
p0
(dp1
S'player_cards'
p2
(lp3
S'6'
p4
ag4
asS'classification'
p5
(S'hit'
p6
F-0.36864
tp7
sS'dealer_card'
p8
S'9'
p9
sb.(i__main__
DBEntry
p0
(dp1
S'player_cards'
p2
(lp3
S'6'
p4
ag4
asS'classification'
p5
(S'hit'
p6
F-0.43235
tp7
sS'dealer_card'
p8
S'10'
p9
sb.(i__main__
DBEntry
p0
(dp1
S'player_cards'
p2
(lp3
S'6'
p4
ag4
asS'classification'
p5
(S'hit'
p6
F-0.56969
tp7
sS'dealer_card'
p8
S'A'
p9
sb.(i__main__
DBEntry
p0
(dp1
S'player_cards'
p2
(lp3
S'6'
p4
aS'7'
p5
asS'classification'
p6
(S'stand'
p7
F-0.28924
tp8
sS'dealer_card'
p9
S'2'
p10
sb.(i__main__
DBEntry
p0
(dp1
S'player_cards'
p2
(lp3
S'6'
p4
aS'7'
p5
asS'classification'
p6
(S'stand'
p7
F-0.24944
tp8
sS'dealer_card'
p9
S'3'
p10
sb.(i__main__
DBEntry
p0
(dp1
S'player_cards'
p2
(lp3
S'6'
p4
aS'7'
p5
asS'classification'
p6
(S'stand'
p7
F-0.20704
tp8
sS'dealer_card'
p9
S'4'
p10
sb.(i__main__
DBEntry
p0
(dp1
S'player_cards'
p2
(lp3
S'6'
p4
aS'7'
p5
asS'classification'
p6
(S'stand'
p7
F-0.16076
tp8
sS'dealer_card'
p9
S'5'
p10
sb.(i__main__
DBEntry
p0
(dp1
S'player_cards'
p2
(lp3
S'6'
p4
aS'7'
p5
asS'classification'
p6
(S'stand'
p7
F-0.15096
tp8
sS'dealer_card'
p9
g4
sb.(i__main__
DBEntry
p0
(dp1
S'player_cards'
p2
(lp3
S'6'
p4
aS'7'
p5
asS'classification'
p6
(S'hit'
p7
F-0.30035
tp8
sS'dealer_card'
p9
g5
sb.(i__main__
DBEntry
p0
(dp1
S'player_cards'
p2
(lp3
S'6'
p4
aS'7'
p5
asS'classification'
p6
(S'hit'
p7
F-0.35058
tp8
sS'dealer_card'
p9
S'8'
p10
sb.(i__main__
DBEntry
p0
(dp1
S'player_cards'
p2
(lp3
S'6'
p4
aS'7'
p5
asS'classification'
p6
(S'hit'
p7
F-0.40157
tp8
sS'dealer_card'
p9
S'9'
p10
sb.(i__main__
DBEntry
p0
(dp1
S'player_cards'
p2
(lp3
S'6'
p4
aS'7'
p5
asS'classification'
p6
(S'hit'
p7
F-0.4688
tp8
sS'dealer_card'
p9
S'10'
p10
sb.(i__main__
DBEntry
p0
(dp1
S'player_cards'
p2
(lp3
S'6'
p4
aS'7'
p5
asS'classification'
p6
(S'hit'
p7
F-0.58824
tp8
sS'dealer_card'
p9
S'A'
p10
sb.(i__main__
DBEntry
p0
(dp1
S'player_cards'
p2
(lp3
S'6'
p4
aS'8'
p5
asS'classification'
p6
(S'stand'
p7
F-0.29526
tp8
sS'dealer_card'
p9
S'2'
p10
sb.(i__main__
DBEntry
p0
(dp1
S'player_cards'
p2
(lp3
S'6'
p4
aS'8'
p5
asS'classification'
p6
(S'stand'
p7
F-0.25068
tp8
sS'dealer_card'
p9
S'3'
p10
sb.(i__main__
DBEntry
p0
(dp1
S'player_cards'
p2
(lp3
S'6'
p4
aS'8'
p5
asS'classification'
p6
(S'stand'
p7
F-0.20882
tp8
sS'dealer_card'
p9
S'4'
p10
sb.(i__main__
DBEntry
p0
(dp1
S'player_cards'
p2
(lp3
S'6'
p4
aS'8'
p5
asS'classification'
p6
(S'stand'
p7
F-0.16804
tp8
sS'dealer_card'
p9
S'5'
p10
sb.(i__main__
DBEntry
p0
(dp1
S'player_cards'
p2
(lp3
S'6'
p4
aS'8'
p5
asS'classification'
p6
(S'stand'
p7
F-0.15632
tp8
sS'dealer_card'
p9
g4
sb.(i__main__
DBEntry
p0
(dp1
S'player_cards'
p2
(lp3
S'6'
p4
aS'8'
p5
asS'classification'
p6
(S'hit'
p7
F-0.33287
tp8
sS'dealer_card'
p9
S'7'
p10
sb.(i__main__
DBEntry
p0
(dp1
S'player_cards'
p2
(lp3
S'6'
p4
aS'8'
p5
asS'classification'
p6
(S'hit'
p7
F-0.38623
tp8
sS'dealer_card'
p9
g5
sb.(i__main__
DBEntry
p0
(dp1
S'player_cards'
p2
(lp3
S'6'
p4
aS'8'
p5
asS'classification'
p6
(S'hit'
p7
F-0.44095
tp8
sS'dealer_card'
p9
S'9'
p10
sb.(i__main__
DBEntry
p0
(dp1
S'player_cards'
p2
(lp3
S'6'
p4
aS'8'
p5
asS'classification'
p6
(S'hit'
p7
F-0.49821
tp8
sS'dealer_card'
p9
S'10'
p10
sb.(i__main__
DBEntry
p0
(dp1
S'player_cards'
p2
(lp3
S'6'
p4
aS'8'
p5
asS'classification'
p6
(S'hit'
p7
F-0.60677
tp8
sS'dealer_card'
p9
S'A'
p10
sb.(i__main__
DBEntry
p0
(dp1
S'player_cards'
p2
(lp3
S'6'
p4
aS'9'
p5
asS'classification'
p6
(S'stand'
p7
F-0.29456
tp8
sS'dealer_card'
p9
S'2'
p10
sb.(i__main__
DBEntry
p0
(dp1
S'player_cards'
p2
(lp3
S'6'
p4
aS'9'
p5
asS'classification'
p6
(S'stand'
p7
F-0.25076
tp8
sS'dealer_card'
p9
S'3'
p10
sb.(i__main__
DBEntry
p0
(dp1
S'player_cards'
p2
(lp3
S'6'
p4
aS'9'
p5
asS'classification'
p6
(S'stand'
p7
F-0.21168
tp8
sS'dealer_card'
p9
S'4'
p10
sb.(i__main__
DBEntry
p0
(dp1
S'player_cards'
p2
(lp3
S'6'
p4
aS'9'
p5
asS'classification'
p6
(S'stand'
p7
F-0.16706
tp8
sS'dealer_card'
p9
S'5'
p10
sb.(i__main__
DBEntry
p0
(dp1
S'player_cards'
p2
(lp3
S'6'
p4
aS'9'
p5
asS'classification'
p6
(S'stand'
p7
F-0.15388
tp8
sS'dealer_card'
p9
g4
sb.(i__main__
DBEntry
p0
(dp1
S'player_cards'
p2
(lp3
S'6'
p4
aS'9'
p5
asS'classification'
p6
(S'hit'
p7
F-0.3756
tp8
sS'dealer_card'
p9
S'7'
p10
sb.(i__main__
DBEntry
p0
(dp1
S'player_cards'
p2
(lp3
S'6'
p4
aS'9'
p5
asS'classification'
p6
(S'hit'
p7
F-0.4196
tp8
sS'dealer_card'
p9
S'8'
p10
sb.(i__main__
DBEntry
p0
(dp1
S'player_cards'
p2
(lp3
S'6'
p4
aS'9'
p5
asS'classification'
p6
(S'hit'
p7
F-0.47258
tp8
sS'dealer_card'
p9
g5
sb.(i__main__
DBEntry
p0
(dp1
S'player_cards'
p2
(lp3
S'6'
p4
aS'9'
p5
asS'classification'
p6
(S'hit'
p7
F-0.537
tp8
sS'dealer_card'
p9
S'10'
p10
sb.(i__main__
DBEntry
p0
(dp1
S'player_cards'
p2
(lp3
S'6'
p4
aS'9'
p5
asS'classification'
p6
(S'hit'
p7
F-0.62621
tp8
sS'dealer_card'
p9
S'A'
p10
sb.(i__main__
DBEntry
p0
(dp1
S'player_cards'
p2
(lp3
S'6'
p4
aS'10'
p5
asS'classification'
p6
(S'stand'
p7
F-0.29588
tp8
sS'dealer_card'
p9
S'2'
p10
sb.(i__main__
DBEntry
p0
(dp1
S'player_cards'
p2
(lp3
S'6'
p4
aS'10'
p5
asS'classification'
p6
(S'stand'
p7
F-0.2546
tp8
sS'dealer_card'
p9
S'3'
p10
sb.(i__main__
DBEntry
p0
(dp1
S'player_cards'
p2
(lp3
S'6'
p4
aS'10'
p5
asS'classification'
p6
(S'stand'
p7
F-0.21352
tp8
sS'dealer_card'
p9
S'4'
p10
sb.(i__main__
DBEntry
p0
(dp1
S'player_cards'
p2
(lp3
S'6'
p4
aS'10'
p5
asS'classification'
p6
(S'stand'
p7
F-0.1606
tp8
sS'dealer_card'
p9
S'5'
p10
sb.(i__main__
DBEntry
p0
(dp1
S'player_cards'
p2
(lp3
S'6'
p4
aS'10'
p5
asS'classification'
p6
(S'stand'
p7
F-0.15186
tp8
sS'dealer_card'
p9
g4
sb.(i__main__
DBEntry
p0
(dp1
S'player_cards'
p2
(lp3
S'6'
p4
aS'10'
p5
asS'classification'
p6
(S'hit'
p7
F-0.41083
tp8
sS'dealer_card'
p9
S'7'
p10
sb.(i__main__
DBEntry
p0
(dp1
S'player_cards'
p2
(lp3
S'6'
p4
aS'10'
p5
asS'classification'
p6
(S'hit'
p7
F-0.45955
tp8
sS'dealer_card'
p9
S'8'
p10
sb.(i__main__
DBEntry
p0
(dp1
S'player_cards'
p2
(lp3
S'6'
p4
aS'10'
p5
asS'classification'
p6
(S'hit'
p7
F-0.50952
tp8
sS'dealer_card'
p9
S'9'
p10
sb.(i__main__
DBEntry
p0
(dp1
S'player_cards'
p2
(lp3
S'6'
p4
aS'10'
p5
asS'classification'
p6
(S'stand'
p7
F-0.57326
tp8
sS'dealer_card'
p9
g5
sb.(i__main__
DBEntry
p0
(dp1
S'player_cards'
p2
(lp3
S'6'
p4
aS'10'
p5
asS'classification'
p6
(S'hit'
p7
F-0.63859
tp8
sS'dealer_card'
p9
S'A'
p10
sb.(i__main__
DBEntry
p0
(dp1
S'player_cards'
p2
(lp3
S'6'
p4
aS'A'
p5
asS'classification'
p6
(S'hit'
p7
F-0.00434
tp8
sS'dealer_card'
p9
S'2'
p10
sb.(i__main__
DBEntry
p0
(dp1
S'player_cards'
p2
(lp3
S'6'
p4
aS'A'
p5
asS'classification'
p6
(S'double_down'
p7
F0.06184
tp8
sS'dealer_card'
p9
S'3'
p10
sb.(i__main__
DBEntry
p0
(dp1
S'player_cards'
p2
(lp3
S'6'
p4
aS'A'
p5
asS'classification'
p6
(S'double_down'
p7
F0.12686
tp8
sS'dealer_card'
p9
S'4'
p10
sb.(i__main__
DBEntry
p0
(dp1
S'player_cards'
p2
(lp3
S'6'
p4
aS'A'
p5
asS'classification'
p6
(S'double_down'
p7
F0.18106
tp8
sS'dealer_card'
p9
S'5'
p10
sb.(i__main__
DBEntry
p0
(dp1
S'player_cards'
p2
(lp3
S'6'
p4
aS'A'
p5
asS'classification'
p6
(S'double_down'
p7
F0.26302
tp8
sS'dealer_card'
p9
g4
sb.(i__main__
DBEntry
p0
(dp1
S'player_cards'
p2
(lp3
S'6'
p4
aS'A'
p5
asS'classification'
p6
(S'hit'
p7
F-0.00658
tp8
sS'dealer_card'
p9
S'7'
p10
sb.(i__main__
DBEntry
p0
(dp1
S'player_cards'
p2
(lp3
S'6'
p4
aS'A'
p5
asS'classification'
p6
(S'hit'
p7
F-0.13044
tp8
sS'dealer_card'
p9
S'8'
p10
sb.(i__main__
DBEntry
p0
(dp1
S'player_cards'
p2
(lp3
S'6'
p4
aS'A'
p5
asS'classification'
p6
(S'hit'
p7
F-0.20278
tp8
sS'dealer_card'
p9
S'9'
p10
sb.(i__main__
DBEntry
p0
(dp1
S'player_cards'
p2
(lp3
S'6'
p4
aS'A'
p5
asS'classification'
p6
(S'hit'
p7
F-0.28526
tp8
sS'dealer_card'
p9
S'10'
p10
sb.(i__main__
DBEntry
p0
(dp1
S'player_cards'
p2
(lp3
S'6'
p4
aS'A'
p5
asS'classification'
p6
(S'hit'
p7
F-0.4674
tp8
sS'dealer_card'
p9
g5
sb.(i__main__
DBEntry
p0
(dp1
S'player_cards'
p2
(lp3
S'7'
p4
ag4
asS'classification'
p5
(S'stand'
p6
F-0.29378
tp7
sS'dealer_card'
p8
S'2'
p9
sb.(i__main__
DBEntry
p0
(dp1
S'player_cards'
p2
(lp3
S'7'
p4
ag4
asS'classification'
p5
(S'stand'
p6
F-0.25196
tp7
sS'dealer_card'
p8
S'3'
p9
sb.(i__main__
DBEntry
p0
(dp1
S'player_cards'
p2
(lp3
S'7'
p4
ag4
asS'classification'
p5
(S'stand'
p6
F-0.21258
tp7
sS'dealer_card'
p8
S'4'
p9
sb.(i__main__
DBEntry
p0
(dp1
S'player_cards'
p2
(lp3
S'7'
p4
ag4
asS'classification'
p5
(S'stand'
p6
F-0.16252
tp7
sS'dealer_card'
p8
S'5'
p9
sb.(i__main__
DBEntry
p0
(dp1
S'player_cards'
p2
(lp3
S'7'
p4
ag4
asS'classification'
p5
(S'stand'
p6
F-0.15582
tp7
sS'dealer_card'
p8
S'6'
p9
sb.(i__main__
DBEntry
p0
(dp1
S'player_cards'
p2
(lp3
S'7'
p4
ag4
asS'classification'
p5
(S'hit'
p6
F-0.33207
tp7
sS'dealer_card'
p8
g4
sb.(i__main__
DBEntry
p0
(dp1
S'player_cards'
p2
(lp3
S'7'
p4
ag4
asS'classification'
p5
(S'hit'
p6
F-0.38418
tp7
sS'dealer_card'
p8
S'8'
p9
sb.(i__main__
DBEntry
p0
(dp1
S'player_cards'
p2
(lp3
S'7'
p4
ag4
asS'classification'
p5
(S'hit'
p6
F-0.44399
tp7
sS'dealer_card'
p8
S'9'
p9
sb.(i__main__
DBEntry
p0
(dp1
S'player_cards'
p2
(lp3
S'7'
p4
ag4
asS'classification'
p5
(S'hit'
p6
F-0.50499
tp7
sS'dealer_card'
p8
S'10'
p9
sb.(i__main__
DBEntry
p0
(dp1
S'player_cards'
p2
(lp3
S'7'
p4
ag4
asS'classification'
p5
(S'hit'
p6
F-0.60049
tp7
sS'dealer_card'
p8
S'A'
p9
sb.(i__main__
DBEntry
p0
(dp1
S'player_cards'
p2
(lp3
S'7'
p4
aS'8'
p5
asS'classification'
p6
(S'stand'
p7
F-0.29586
tp8
sS'dealer_card'
p9
S'2'
p10
sb.(i__main__
DBEntry
p0
(dp1
S'player_cards'
p2
(lp3
S'7'
p4
aS'8'
p5
asS'classification'
p6
(S'stand'
p7
F-0.25012
tp8
sS'dealer_card'
p9
S'3'
p10
sb.(i__main__
DBEntry
p0
(dp1
S'player_cards'
p2
(lp3
S'7'
p4
aS'8'
p5
asS'classification'
p6
(S'stand'
p7
F-0.21212
tp8
sS'dealer_card'
p9
S'4'
p10
sb.(i__main__
DBEntry
p0
(dp1
S'player_cards'
p2
(lp3
S'7'
p4
aS'8'
p5
asS'classification'
p6
(S'stand'
p7
F-0.16972
tp8
sS'dealer_card'
p9
S'5'
p10
sb.(i__main__
DBEntry
p0
(dp1
S'player_cards'
p2
(lp3
S'7'
p4
aS'8'
p5
asS'classification'
p6
(S'stand'
p7
F-0.14964
tp8
sS'dealer_card'
p9
S'6'
p10
sb.(i__main__
DBEntry
p0
(dp1
S'player_cards'
p2
(lp3
S'7'
p4
aS'8'
p5
asS'classification'
p6
(S'hit'
p7
F-0.37352
tp8
sS'dealer_card'
p9
g4
sb.(i__main__
DBEntry
p0
(dp1
S'player_cards'
p2
(lp3
S'7'
p4
aS'8'
p5
asS'classification'
p6
(S'hit'
p7
F-0.42249
tp8
sS'dealer_card'
p9
g5
sb.(i__main__
DBEntry
p0
(dp1
S'player_cards'
p2
(lp3
S'7'
p4
aS'8'
p5
asS'classification'
p6
(S'hit'
p7
F-0.4752
tp8
sS'dealer_card'
p9
S'9'
p10
sb.(i__main__
DBEntry
p0
(dp1
S'player_cards'
p2
(lp3
S'7'
p4
aS'8'
p5
asS'classification'
p6
(S'hit'
p7
F-0.53658
tp8
sS'dealer_card'
p9
S'10'
p10
sb.(i__main__
DBEntry
p0
(dp1
S'player_cards'
p2
(lp3
S'7'
p4
aS'8'
p5
asS'classification'
p6
(S'hit'
p7
F-0.62686
tp8
sS'dealer_card'
p9
S'A'
p10
sb.(i__main__
DBEntry
p0
(dp1
S'player_cards'
p2
(lp3
S'7'
p4
aS'9'
p5
asS'classification'
p6
(S'stand'
p7
F-0.29136
tp8
sS'dealer_card'
p9
S'2'
p10
sb.(i__main__
DBEntry
p0
(dp1
S'player_cards'
p2
(lp3
S'7'
p4
aS'9'
p5
asS'classification'
p6
(S'stand'
p7
F-0.26032
tp8
sS'dealer_card'
p9
S'3'
p10
sb.(i__main__
DBEntry
p0
(dp1
S'player_cards'
p2
(lp3
S'7'
p4
aS'9'
p5
asS'classification'
p6
(S'stand'
p7
F-0.2087
tp8
sS'dealer_card'
p9
S'4'
p10
sb.(i__main__
DBEntry
p0
(dp1
S'player_cards'
p2
(lp3
S'7'
p4
aS'9'
p5
asS'classification'
p6
(S'stand'
p7
F-0.16376
tp8
sS'dealer_card'
p9
S'5'
p10
sb.(i__main__
DBEntry
p0
(dp1
S'player_cards'
p2
(lp3
S'7'
p4
aS'9'
p5
asS'classification'
p6
(S'stand'
p7
F-0.15492
tp8
sS'dealer_card'
p9
S'6'
p10
sb.(i__main__
DBEntry
p0
(dp1
S'player_cards'
p2
(lp3
S'7'
p4
aS'9'
p5
asS'classification'
p6
(S'hit'
p7
F-0.4166
tp8
sS'dealer_card'
p9
g4
sb.(i__main__
DBEntry
p0
(dp1
S'player_cards'
p2
(lp3
S'7'
p4
aS'9'
p5
asS'classification'
p6
(S'hit'
p7
F-0.4556
tp8
sS'dealer_card'
p9
S'8'
p10
sb.(i__main__
DBEntry
p0
(dp1
S'player_cards'
p2
(lp3
S'7'
p4
aS'9'
p5
asS'classification'
p6
(S'hit'
p7
F-0.50926
tp8
sS'dealer_card'
p9
g5
sb.(i__main__
DBEntry
p0
(dp1
S'player_cards'
p2
(lp3
S'7'
p4
aS'9'
p5
asS'classification'
p6
(S'hit'
p7
F-0.57226
tp8
sS'dealer_card'
p9
S'10'
p10
sb.(i__main__
DBEntry
p0
(dp1
S'player_cards'
p2
(lp3
S'7'
p4
aS'9'
p5
asS'classification'
p6
(S'hit'
p7
F-0.64425
tp8
sS'dealer_card'
p9
S'A'
p10
sb.(i__main__
DBEntry
p0
(dp1
S'player_cards'
p2
(lp3
S'7'
p4
aS'10'
p5
asS'classification'
p6
(S'stand'
p7
F-0.15902
tp8
sS'dealer_card'
p9
S'2'
p10
sb.(i__main__
DBEntry
p0
(dp1
S'player_cards'
p2
(lp3
S'7'
p4
aS'10'
p5
asS'classification'
p6
(S'stand'
p7
F-0.11777
tp8
sS'dealer_card'
p9
S'3'
p10
sb.(i__main__
DBEntry
p0
(dp1
S'player_cards'
p2
(lp3
S'7'
p4
aS'10'
p5
asS'classification'
p6
(S'stand'
p7
F-0.07535
tp8
sS'dealer_card'
p9
S'4'
p10
sb.(i__main__
DBEntry
p0
(dp1
S'player_cards'
p2
(lp3
S'7'
p4
aS'10'
p5
asS'classification'
p6
(S'stand'
p7
F-0.04929
tp8
sS'dealer_card'
p9
S'5'
p10
sb.(i__main__
DBEntry
p0
(dp1
S'player_cards'
p2
(lp3
S'7'
p4
aS'10'
p5
asS'classification'
p6
(S'stand'
p7
F0.01587
tp8
sS'dealer_card'
p9
S'6'
p10
sb.(i__main__
DBEntry
p0
(dp1
S'player_cards'
p2
(lp3
S'7'
p4
aS'10'
p5
asS'classification'
p6
(S'stand'
p7
F-0.10695
tp8
sS'dealer_card'
p9
g4
sb.(i__main__
DBEntry
p0
(dp1
S'player_cards'
p2
(lp3
S'7'
p4
aS'10'
p5
asS'classification'
p6
(S'stand'
p7
F-0.3831
tp8
sS'dealer_card'
p9
S'8'
p10
sb.(i__main__
DBEntry
p0
(dp1
S'player_cards'
p2
(lp3
S'7'
p4
aS'10'
p5
asS'classification'
p6
(S'stand'
p7
F-0.42223
tp8
sS'dealer_card'
p9
S'9'
p10
sb.(i__main__
DBEntry
p0
(dp1
S'player_cards'
p2
(lp3
S'7'
p4
aS'10'
p5
asS'classification'
p6
(S'stand'
p7
F-0.4649
tp8
sS'dealer_card'
p9
g5
sb.(i__main__
DBEntry
p0
(dp1
S'player_cards'
p2
(lp3
S'7'
p4
aS'10'
p5
asS'classification'
p6
(S'stand'
p7
F-0.63698
tp8
sS'dealer_card'
p9
S'A'
p10
sb.(i__main__
DBEntry
p0
(dp1
S'player_cards'
p2
(lp3
S'7'
p4
aS'A'
p5
asS'classification'
p6
(S'stand'
p7
F0.11955
tp8
sS'dealer_card'
p9
S'2'
p10
sb.(i__main__
DBEntry
p0
(dp1
S'player_cards'
p2
(lp3
S'7'
p4
aS'A'
p5
asS'classification'
p6
(S'double_down'
p7
F0.17586
tp8
sS'dealer_card'
p9
S'3'
p10
sb.(i__main__
DBEntry
p0
(dp1
S'player_cards'
p2
(lp3
S'7'
p4
aS'A'
p5
asS'classification'
p6
(S'double_down'
p7
F0.23788
tp8
sS'dealer_card'
p9
S'4'
p10
sb.(i__main__
DBEntry
p0
(dp1
S'player_cards'
p2
(lp3
S'7'
p4
aS'A'
p5
asS'classification'
p6
(S'double_down'
p7
F0.29264
tp8
sS'dealer_card'
p9
S'5'
p10
sb.(i__main__
DBEntry
p0
(dp1
S'player_cards'
p2
(lp3
S'7'
p4
aS'A'
p5
asS'classification'
p6
(S'double_down'
p7
F0.38386
tp8
sS'dealer_card'
p9
S'6'
p10
sb.(i__main__
DBEntry
p0
(dp1
S'player_cards'
p2
(lp3
S'7'
p4
aS'A'
p5
asS'classification'
p6
(S'stand'
p7
F0.40075
tp8
sS'dealer_card'
p9
g4
sb.(i__main__
DBEntry
p0
(dp1
S'player_cards'
p2
(lp3
S'7'
p4
aS'A'
p5
asS'classification'
p6
(S'stand'
p7
F0.10172
tp8
sS'dealer_card'
p9
S'8'
p10
sb.(i__main__
DBEntry
p0
(dp1
S'player_cards'
p2
(lp3
S'7'
p4
aS'A'
p5
asS'classification'
p6
(S'hit'
p7
F-0.15111
tp8
sS'dealer_card'
p9
S'9'
p10
sb.(i__main__
DBEntry
p0
(dp1
S'player_cards'
p2
(lp3
S'7'
p4
aS'A'
p5
asS'classification'
p6
(S'hit'
p7
F-0.23129
tp8
sS'dealer_card'
p9
S'10'
p10
sb.(i__main__
DBEntry
p0
(dp1
S'player_cards'
p2
(lp3
S'7'
p4
aS'A'
p5
asS'classification'
p6
(S'stand'
p7
F-0.37572
tp8
sS'dealer_card'
p9
g5
sb.(i__main__
DBEntry
p0
(dp1
S'player_cards'
p2
(lp3
S'8'
p4
ag4
asS'classification'
p5
(S'stand'
p6
F-0.29232
tp7
sS'dealer_card'
p8
S'2'
p9
sb.(i__main__
DBEntry
p0
(dp1
S'player_cards'
p2
(lp3
S'8'
p4
ag4
asS'classification'
p5
(S'stand'
p6
F-0.24976
tp7
sS'dealer_card'
p8
S'3'
p9
sb.(i__main__
DBEntry
p0
(dp1
S'player_cards'
p2
(lp3
S'8'
p4
ag4
asS'classification'
p5
(S'stand'
p6
F-0.21
tp7
sS'dealer_card'
p8
S'4'
p9
sb.(i__main__
DBEntry
p0
(dp1
S'player_cards'
p2
(lp3
S'8'
p4
ag4
asS'classification'
p5
(S'stand'
p6
F-0.17392
tp7
sS'dealer_card'
p8
S'5'
p9
sb.(i__main__
DBEntry
p0
(dp1
S'player_cards'
p2
(lp3
S'8'
p4
ag4
asS'classification'
p5
(S'stand'
p6
F-0.1553
tp7
sS'dealer_card'
p8
S'6'
p9
sb.(i__main__
DBEntry
p0
(dp1
S'player_cards'
p2
(lp3
S'8'
p4
ag4
asS'classification'
p5
(S'hit'
p6
F-0.41387
tp7
sS'dealer_card'
p8
S'7'
p9
sb.(i__main__
DBEntry
p0
(dp1
S'player_cards'
p2
(lp3
S'8'
p4
ag4
asS'classification'
p5
(S'hit'
p6
F-0.45665
tp7
sS'dealer_card'
p8
g4
sb.(i__main__
DBEntry
p0
(dp1
S'player_cards'
p2
(lp3
S'8'
p4
ag4
asS'classification'
p5
(S'hit'
p6
F-0.51248
tp7
sS'dealer_card'
p8
S'9'
p9
sb.(i__main__
DBEntry
p0
(dp1
S'player_cards'
p2
(lp3
S'8'
p4
ag4
asS'classification'
p5
(S'hit'
p6
F-0.56985
tp7
sS'dealer_card'
p8
S'10'
p9
sb.(i__main__
DBEntry
p0
(dp1
S'player_cards'
p2
(lp3
S'8'
p4
ag4
asS'classification'
p5
(S'hit'
p6
F-0.64431
tp7
sS'dealer_card'
p8
S'A'
p9
sb.(i__main__
DBEntry
p0
(dp1
S'player_cards'
p2
(lp3
S'8'
p4
aS'9'
p5
asS'classification'
p6
(S'stand'
p7
F-0.14683
tp8
sS'dealer_card'
p9
S'2'
p10
sb.(i__main__
DBEntry
p0
(dp1
S'player_cards'
p2
(lp3
S'8'
p4
aS'9'
p5
asS'classification'
p6
(S'stand'
p7
F-0.11599
tp8
sS'dealer_card'
p9
S'3'
p10
sb.(i__main__
DBEntry
p0
(dp1
S'player_cards'
p2
(lp3
S'8'
p4
aS'9'
p5
asS'classification'
p6
(S'stand'
p7
F-0.07919
tp8
sS'dealer_card'
p9
S'4'
p10
sb.(i__main__
DBEntry
p0
(dp1
S'player_cards'
p2
(lp3
S'8'
p4
aS'9'
p5
asS'classification'
p6
(S'stand'
p7
F-0.04366
tp8
sS'dealer_card'
p9
S'5'
p10
sb.(i__main__
DBEntry
p0
(dp1
S'player_cards'
p2
(lp3
S'8'
p4
aS'9'
p5
asS'classification'
p6
(S'stand'
p7
F0.01526
tp8
sS'dealer_card'
p9
S'6'
p10
sb.(i__main__
DBEntry
p0
(dp1
S'player_cards'
p2
(lp3
S'8'
p4
aS'9'
p5
asS'classification'
p6
(S'stand'
p7
F-0.11003
tp8
sS'dealer_card'
p9
S'7'
p10
sb.(i__main__
DBEntry
p0
(dp1
S'player_cards'
p2
(lp3
S'8'
p4
aS'9'
p5
asS'classification'
p6
(S'stand'
p7
F-0.38316
tp8
sS'dealer_card'
p9
g4
sb.(i__main__
DBEntry
p0
(dp1
S'player_cards'
p2
(lp3
S'8'
p4
aS'9'
p5
asS'classification'
p6
(S'stand'
p7
F-0.42651
tp8
sS'dealer_card'
p9
g5
sb.(i__main__
DBEntry
p0
(dp1
S'player_cards'
p2
(lp3
S'8'
p4
aS'9'
p5
asS'classification'
p6
(S'stand'
p7
F-0.46304
tp8
sS'dealer_card'
p9
S'10'
p10
sb.(i__main__
DBEntry
p0
(dp1
S'player_cards'
p2
(lp3
S'8'
p4
aS'9'
p5
asS'classification'
p6
(S'stand'
p7
F-0.64148
tp8
sS'dealer_card'
p9
S'A'
p10
sb.(i__main__
DBEntry
p0
(dp1
S'player_cards'
p2
(lp3
S'8'
p4
aS'10'
p5
asS'classification'
p6
(S'stand'
p7
F0.11497
tp8
sS'dealer_card'
p9
S'2'
p10
sb.(i__main__
DBEntry
p0
(dp1
S'player_cards'
p2
(lp3
S'8'
p4
aS'10'
p5
asS'classification'
p6
(S'stand'
p7
F0.14953
tp8
sS'dealer_card'
p9
S'3'
p10
sb.(i__main__
DBEntry
p0
(dp1
S'player_cards'
p2
(lp3
S'8'
p4
aS'10'
p5
asS'classification'
p6
(S'stand'
p7
F0.1767
tp8
sS'dealer_card'
p9
S'4'
p10
sb.(i__main__
DBEntry
p0
(dp1
S'player_cards'
p2
(lp3
S'8'
p4
aS'10'
p5
asS'classification'
p6
(S'stand'
p7
F0.20281
tp8
sS'dealer_card'
p9
S'5'
p10
sb.(i__main__
DBEntry
p0
(dp1
S'player_cards'
p2
(lp3
S'8'
p4
aS'10'
p5
asS'classification'
p6
(S'stand'
p7
F0.28551
tp8
sS'dealer_card'
p9
S'6'
p10
sb.(i__main__
DBEntry
p0
(dp1
S'player_cards'
p2
(lp3
S'8'
p4
aS'10'
p5
asS'classification'
p6
(S'stand'
p7
F0.3993
tp8
sS'dealer_card'
p9
S'7'
p10
sb.(i__main__
DBEntry
p0
(dp1
S'player_cards'
p2
(lp3
S'8'
p4
aS'10'
p5
asS'classification'
p6
(S'stand'
p7
F0.10586
tp8
sS'dealer_card'
p9
g4
sb.(i__main__
DBEntry
p0
(dp1
S'player_cards'
p2
(lp3
S'8'
p4
aS'10'
p5
asS'classification'
p6
(S'stand'
p7
F-0.18485
tp8
sS'dealer_card'
p9
S'9'
p10
sb.(i__main__
DBEntry
p0
(dp1
S'player_cards'
p2
(lp3
S'8'
p4
aS'10'
p5
asS'classification'
p6
(S'stand'
p7
F-0.24245
tp8
sS'dealer_card'
p9
g5
sb.(i__main__
DBEntry
p0
(dp1
S'player_cards'
p2
(lp3
S'8'
p4
aS'10'
p5
asS'classification'
p6
(S'stand'
p7
F-0.37762
tp8
sS'dealer_card'
p9
S'A'
p10
sb.(i__main__
DBEntry
p0
(dp1
S'player_cards'
p2
(lp3
S'8'
p4
aS'A'
p5
asS'classification'
p6
(S'stand'
p7
F0.38604
tp8
sS'dealer_card'
p9
S'2'
p10
sb.(i__main__
DBEntry
p0
(dp1
S'player_cards'
p2
(lp3
S'8'
p4
aS'A'
p5
asS'classification'
p6
(S'stand'
p7
F0.40892
tp8
sS'dealer_card'
p9
S'3'
p10
sb.(i__main__
DBEntry
p0
(dp1
S'player_cards'
p2
(lp3
S'8'
p4
aS'A'
p5
asS'classification'
p6
(S'stand'
p7
F0.42029
tp8
sS'dealer_card'
p9
S'4'
p10
sb.(i__main__
DBEntry
p0
(dp1
S'player_cards'
p2
(lp3
S'8'
p4
aS'A'
p5
asS'classification'
p6
(S'stand'
p7
F0.44044
tp8
sS'dealer_card'
p9
S'5'
p10
sb.(i__main__
DBEntry
p0
(dp1
S'player_cards'
p2
(lp3
S'8'
p4
aS'A'
p5
asS'classification'
p6
(S'stand'
p7
F0.49509
tp8
sS'dealer_card'
p9
S'6'
p10
sb.(i__main__
DBEntry
p0
(dp1
S'player_cards'
p2
(lp3
S'8'
p4
aS'A'
p5
asS'classification'
p6
(S'stand'
p7
F0.61776
tp8
sS'dealer_card'
p9
S'7'
p10
sb.(i__main__
DBEntry
p0
(dp1
S'player_cards'
p2
(lp3
S'8'
p4
aS'A'
p5
asS'classification'
p6
(S'stand'
p7
F0.59471
tp8
sS'dealer_card'
p9
g4
sb.(i__main__
DBEntry
p0
(dp1
S'player_cards'
p2
(lp3
S'8'
p4
aS'A'
p5
asS'classification'
p6
(S'stand'
p7
F0.28931
tp8
sS'dealer_card'
p9
S'9'
p10
sb.(i__main__
DBEntry
p0
(dp1
S'player_cards'
p2
(lp3
S'8'
p4
aS'A'
p5
asS'classification'
p6
(S'stand'
p7
F-0.01343
tp8
sS'dealer_card'
p9
S'10'
p10
sb.(i__main__
DBEntry
p0
(dp1
S'player_cards'
p2
(lp3
S'8'
p4
aS'A'
p5
asS'classification'
p6
(S'stand'
p7
F-0.1181
tp8
sS'dealer_card'
p9
g5
sb.(i__main__
DBEntry
p0
(dp1
S'player_cards'
p2
(lp3
S'9'
p4
ag4
asS'classification'
p5
(S'stand'
p6
F0.12372
tp7
sS'dealer_card'
p8
S'2'
p9
sb.(i__main__
DBEntry
p0
(dp1
S'player_cards'
p2
(lp3
S'9'
p4
ag4
asS'classification'
p5
(S'stand'
p6
F0.14636
tp7
sS'dealer_card'
p8
S'3'
p9
sb.(i__main__
DBEntry
p0
(dp1
S'player_cards'
p2
(lp3
S'9'
p4
ag4
asS'classification'
p5
(S'stand'
p6
F0.17373
tp7
sS'dealer_card'
p8
S'4'
p9
sb.(i__main__
DBEntry
p0
(dp1
S'player_cards'
p2
(lp3
S'9'
p4
ag4
asS'classification'
p5
(S'stand'
p6
F0.19786
tp7
sS'dealer_card'
p8
S'5'
p9
sb.(i__main__
DBEntry
p0
(dp1
S'player_cards'
p2
(lp3
S'9'
p4
ag4
asS'classification'
p5
(S'stand'
p6
F0.28043
tp7
sS'dealer_card'
p8
S'6'
p9
sb.(i__main__
DBEntry
p0
(dp1
S'player_cards'
p2
(lp3
S'9'
p4
ag4
asS'classification'
p5
(S'stand'
p6
F0.40052
tp7
sS'dealer_card'
p8
S'7'
p9
sb.(i__main__
DBEntry
p0
(dp1
S'player_cards'
p2
(lp3
S'9'
p4
ag4
asS'classification'
p5
(S'stand'
p6
F0.10422
tp7
sS'dealer_card'
p8
S'8'
p9
sb.(i__main__
DBEntry
p0
(dp1
S'player_cards'
p2
(lp3
S'9'
p4
ag4
asS'classification'
p5
(S'stand'
p6
F-0.18393
tp7
sS'dealer_card'
p8
g4
sb.(i__main__
DBEntry
p0
(dp1
S'player_cards'
p2
(lp3
S'9'
p4
ag4
asS'classification'
p5
(S'stand'
p6
F-0.2352
tp7
sS'dealer_card'
p8
S'10'
p9
sb.(i__main__
DBEntry
p0
(dp1
S'player_cards'
p2
(lp3
S'9'
p4
ag4
asS'classification'
p5
(S'stand'
p6
F-0.36984
tp7
sS'dealer_card'
p8
S'A'
p9
sb.(i__main__
DBEntry
p0
(dp1
S'player_cards'
p2
(lp3
S'9'
p4
aS'10'
p5
asS'classification'
p6
(S'stand'
p7
F0.38852
tp8
sS'dealer_card'
p9
S'2'
p10
sb.(i__main__
DBEntry
p0
(dp1
S'player_cards'
p2
(lp3
S'9'
p4
aS'10'
p5
asS'classification'
p6
(S'stand'
p7
F0.40388
tp8
sS'dealer_card'
p9
S'3'
p10
sb.(i__main__
DBEntry
p0
(dp1
S'player_cards'
p2
(lp3
S'9'
p4
aS'10'
p5
asS'classification'
p6
(S'stand'
p7
F0.42373
tp8
sS'dealer_card'
p9
S'4'
p10
sb.(i__main__
DBEntry
p0
(dp1
S'player_cards'
p2
(lp3
S'9'
p4
aS'10'
p5
asS'classification'
p6
(S'stand'
p7
F0.43591
tp8
sS'dealer_card'
p9
S'5'
p10
sb.(i__main__
DBEntry
p0
(dp1
S'player_cards'
p2
(lp3
S'9'
p4
aS'10'
p5
asS'classification'
p6
(S'stand'
p7
F0.49764
tp8
sS'dealer_card'
p9
S'6'
p10
sb.(i__main__
DBEntry
p0
(dp1
S'player_cards'
p2
(lp3
S'9'
p4
aS'10'
p5
asS'classification'
p6
(S'stand'
p7
F0.6166
tp8
sS'dealer_card'
p9
S'7'
p10
sb.(i__main__
DBEntry
p0
(dp1
S'player_cards'
p2
(lp3
S'9'
p4
aS'10'
p5
asS'classification'
p6
(S'stand'
p7
F0.59218
tp8
sS'dealer_card'
p9
S'8'
p10
sb.(i__main__
DBEntry
p0
(dp1
S'player_cards'
p2
(lp3
S'9'
p4
aS'10'
p5
asS'classification'
p6
(S'stand'
p7
F0.28722
tp8
sS'dealer_card'
p9
g4
sb.(i__main__
DBEntry
p0
(dp1
S'player_cards'
p2
(lp3
S'9'
p4
aS'10'
p5
asS'classification'
p6
(S'stand'
p7
F-0.01552
tp8
sS'dealer_card'
p9
g5
sb.(i__main__
DBEntry
p0
(dp1
S'player_cards'
p2
(lp3
S'9'
p4
aS'10'
p5
asS'classification'
p6
(S'stand'
p7
F-0.11357
tp8
sS'dealer_card'
p9
S'A'
p10
sb.(i__main__
DBEntry
p0
(dp1
S'player_cards'
p2
(lp3
S'9'
p4
aS'A'
p5
asS'classification'
p6
(S'stand'
p7
F0.64041
tp8
sS'dealer_card'
p9
S'2'
p10
sb.(i__main__
DBEntry
p0
(dp1
S'player_cards'
p2
(lp3
S'9'
p4
aS'A'
p5
asS'classification'
p6
(S'stand'
p7
F0.65104
tp8
sS'dealer_card'
p9
S'3'
p10
sb.(i__main__
DBEntry
p0
(dp1
S'player_cards'
p2
(lp3
S'9'
p4
aS'A'
p5
asS'classification'
p6
(S'stand'
p7
F0.66291
tp8
sS'dealer_card'
p9
S'4'
p10
sb.(i__main__
DBEntry
p0
(dp1
S'player_cards'
p2
(lp3
S'9'
p4
aS'A'
p5
asS'classification'
p6
(S'stand'
p7
F0.66989
tp8
sS'dealer_card'
p9
S'5'
p10
sb.(i__main__
DBEntry
p0
(dp1
S'player_cards'
p2
(lp3
S'9'
p4
aS'A'
p5
asS'classification'
p6
(S'stand'
p7
F0.703
tp8
sS'dealer_card'
p9
S'6'
p10
sb.(i__main__
DBEntry
p0
(dp1
S'player_cards'
p2
(lp3
S'9'
p4
aS'A'
p5
asS'classification'
p6
(S'stand'
p7
F0.77293
tp8
sS'dealer_card'
p9
S'7'
p10
sb.(i__main__
DBEntry
p0
(dp1
S'player_cards'
p2
(lp3
S'9'
p4
aS'A'
p5
asS'classification'
p6
(S'stand'
p7
F0.79371
tp8
sS'dealer_card'
p9
S'8'
p10
sb.(i__main__
DBEntry
p0
(dp1
S'player_cards'
p2
(lp3
S'9'
p4
aS'A'
p5
asS'classification'
p6
(S'stand'
p7
F0.76046
tp8
sS'dealer_card'
p9
g4
sb.(i__main__
DBEntry
p0
(dp1
S'player_cards'
p2
(lp3
S'9'
p4
aS'A'
p5
asS'classification'
p6
(S'stand'
p7
F0.4361
tp8
sS'dealer_card'
p9
S'10'
p10
sb.(i__main__
DBEntry
p0
(dp1
S'player_cards'
p2
(lp3
S'9'
p4
aS'A'
p5
asS'classification'
p6
(S'stand'
p7
F0.14766
tp8
sS'dealer_card'
p9
g5
sb.(i__main__
DBEntry
p0
(dp1
S'player_cards'
p2
(lp3
S'10'
p4
ag4
asS'classification'
p5
(S'stand'
p6
F0.63966
tp7
sS'dealer_card'
p8
S'2'
p9
sb.(i__main__
DBEntry
p0
(dp1
S'player_cards'
p2
(lp3
S'10'
p4
ag4
asS'classification'
p5
(S'stand'
p6
F0.64989
tp7
sS'dealer_card'
p8
S'3'
p9
sb.(i__main__
DBEntry
p0
(dp1
S'player_cards'
p2
(lp3
S'10'
p4
ag4
asS'classification'
p5
(S'stand'
p6
F0.66187
tp7
sS'dealer_card'
p8
S'4'
p9
sb.(i__main__
DBEntry
p0
(dp1
S'player_cards'
p2
(lp3
S'10'
p4
ag4
asS'classification'
p5
(S'stand'
p6
F0.67058
tp7
sS'dealer_card'
p8
S'5'
p9
sb.(i__main__
DBEntry
p0
(dp1
S'player_cards'
p2
(lp3
S'10'
p4
ag4
asS'classification'
p5
(S'stand'
p6
F0.70326
tp7
sS'dealer_card'
p8
S'6'
p9
sb.(i__main__
DBEntry
p0
(dp1
S'player_cards'
p2
(lp3
S'10'
p4
ag4
asS'classification'
p5
(S'stand'
p6
F0.77282
tp7
sS'dealer_card'
p8
S'7'
p9
sb.(i__main__
DBEntry
p0
(dp1
S'player_cards'
p2
(lp3
S'10'
p4
ag4
asS'classification'
p5
(S'stand'
p6
F0.79434
tp7
sS'dealer_card'
p8
S'8'
p9
sb.(i__main__
DBEntry
p0
(dp1
S'player_cards'
p2
(lp3
S'10'
p4
ag4
asS'classification'
p5
(S'stand'
p6
F0.75612
tp7
sS'dealer_card'
p8
S'9'
p9
sb.(i__main__
DBEntry
p0
(dp1
S'player_cards'
p2
(lp3
S'10'
p4
ag4
asS'classification'
p5
(S'stand'
p6
F0.4352
tp7
sS'dealer_card'
p8
g4
sb.(i__main__
DBEntry
p0
(dp1
S'player_cards'
p2
(lp3
S'10'
p4
ag4
asS'classification'
p5
(S'stand'
p6
F0.148
tp7
sS'dealer_card'
p8
S'A'
p9
sb.(i__main__
DBEntry
p0
(dp1
S'player_cards'
p2
(lp3
S'10'
p4
aS'A'
p5
asS'classification'
p6
(S'stand'
p7
F0.88276
tp8
sS'dealer_card'
p9
S'2'
p10
sb.(i__main__
DBEntry
p0
(dp1
S'player_cards'
p2
(lp3
S'10'
p4
aS'A'
p5
asS'classification'
p6
(S'stand'
p7
F0.88451
tp8
sS'dealer_card'
p9
S'3'
p10
sb.(i__main__
DBEntry
p0
(dp1
S'player_cards'
p2
(lp3
S'10'
p4
aS'A'
p5
asS'classification'
p6
(S'stand'
p7
F0.8879
tp8
sS'dealer_card'
p9
S'4'
p10
sb.(i__main__
DBEntry
p0
(dp1
S'player_cards'
p2
(lp3
S'10'
p4
aS'A'
p5
asS'classification'
p6
(S'stand'
p7
F0.89203
tp8
sS'dealer_card'
p9
S'5'
p10
sb.(i__main__
DBEntry
p0
(dp1
S'player_cards'
p2
(lp3
S'10'
p4
aS'A'
p5
asS'classification'
p6
(S'stand'
p7
F0.90333
tp8
sS'dealer_card'
p9
S'6'
p10
sb.(i__main__
DBEntry
p0
(dp1
S'player_cards'
p2
(lp3
S'10'
p4
aS'A'
p5
asS'classification'
p6
(S'stand'
p7
F0.92616
tp8
sS'dealer_card'
p9
S'7'
p10
sb.(i__main__
DBEntry
p0
(dp1
S'player_cards'
p2
(lp3
S'10'
p4
aS'A'
p5
asS'classification'
p6
(S'stand'
p7
F0.93241
tp8
sS'dealer_card'
p9
S'8'
p10
sb.(i__main__
DBEntry
p0
(dp1
S'player_cards'
p2
(lp3
S'10'
p4
aS'A'
p5
asS'classification'
p6
(S'stand'
p7
F0.93962
tp8
sS'dealer_card'
p9
S'9'
p10
sb.(i__main__
DBEntry
p0
(dp1
S'player_cards'
p2
(lp3
S'10'
p4
aS'A'
p5
asS'classification'
p6
(S'stand'
p7
F0.88782
tp8
sS'dealer_card'
p9
g4
sb.(i__main__
DBEntry
p0
(dp1
S'player_cards'
p2
(lp3
S'10'
p4
aS'A'
p5
asS'classification'
p6
(S'stand'
p7
F0.63589
tp8
sS'dealer_card'
p9
g5
sb.(i__main__
DBEntry
p0
(dp1
S'player_cards'
p2
(lp3
S'A'
p4
ag4
asS'classification'
p5
(S'hit'
p6
F-0.0283
tp7
sS'dealer_card'
p8
S'2'
p9
sb.(i__main__
DBEntry
p0
(dp1
S'player_cards'
p2
(lp3
S'A'
p4
ag4
asS'classification'
p5
(S'double_down'
p6
F-0.00332
tp7
sS'dealer_card'
p8
S'3'
p9
sb.(i__main__
DBEntry
p0
(dp1
S'player_cards'
p2
(lp3
S'A'
p4
ag4
asS'classification'
p5
(S'double_down'
p6
F0.06556
tp7
sS'dealer_card'
p8
S'4'
p9
sb.(i__main__
DBEntry
p0
(dp1
S'player_cards'
p2
(lp3
S'A'
p4
ag4
asS'classification'
p5
(S'double_down'
p6
F0.1143
tp7
sS'dealer_card'
p8
S'5'
p9
sb.(i__main__
DBEntry
p0
(dp1
S'player_cards'
p2
(lp3
S'A'
p4
ag4
asS'classification'
p5
(S'double_down'
p6
F0.17654
tp7
sS'dealer_card'
p8
S'6'
p9
sb.(i__main__
DBEntry
p0
(dp1
S'player_cards'
p2
(lp3
S'A'
p4
ag4
asS'classification'
p5
(S'hit'
p6
F-0.09028
tp7
sS'dealer_card'
p8
S'7'
p9
sb.(i__main__
DBEntry
p0
(dp1
S'player_cards'
p2
(lp3
S'A'
p4
ag4
asS'classification'
p5
(S'hit'
p6
F-0.15733
tp7
sS'dealer_card'
p8
S'8'
p9
sb.(i__main__
DBEntry
p0
(dp1
S'player_cards'
p2
(lp3
S'A'
p4
ag4
asS'classification'
p5
(S'hit'
p6
F-0.22437
tp7
sS'dealer_card'
p8
S'9'
p9
sb.(i__main__
DBEntry
p0
(dp1
S'player_cards'
p2
(lp3
S'A'
p4
ag4
asS'classification'
p5
(S'hit'
p6
F-0.30907
tp7
sS'dealer_card'
p8
S'10'
p9
sb.(i__main__
DBEntry
p0
(dp1
S'player_cards'
p2
(lp3
S'A'
p4
ag4
asS'classification'
p5
(S'hit'
p6
F-0.5003
tp7
sS'dealer_card'
p8
g4
sb.