(i__main__
DBEntry
p0
(dp1
S'player_cards'
p2
(lp3
S'2'
p4
ag4
asS'classification'
p5
(S'stand'
p6
F-0.2939
tp7
sS'dealer_card'
p8
g4
sb.(i__main__
DBEntry
p0
(dp1
S'player_cards'
p2
(lp3
S'2'
p4
ag4
asS'classification'
p5
(S'stand'
p6
F-0.24958
tp7
sS'dealer_card'
p8
S'3'
p9
sb.(i__main__
DBEntry
p0
(dp1
S'player_cards'
p2
(lp3
S'2'
p4
ag4
asS'classification'
p5
(S'stand'
p6
F-0.21432
tp7
sS'dealer_card'
p8
S'4'
p9
sb.(i__main__
DBEntry
p0
(dp1
S'player_cards'
p2
(lp3
S'2'
p4
ag4
asS'classification'
p5
(S'hit'
p6
F-0.15996
tp7
sS'dealer_card'
p8
S'5'
p9
sb.(i__main__
DBEntry
p0
(dp1
S'player_cards'
p2
(lp3
S'2'
p4
ag4
asS'classification'
p5
(S'hit'
p6
F-0.15468
tp7
sS'dealer_card'
p8
S'6'
p9
sb.(i__main__
DBEntry
p0
(dp1
S'player_cards'
p2
(lp3
S'2'
p4
ag4
asS'classification'
p5
(S'stand'
p6
F-0.47086
tp7
sS'dealer_card'
p8
S'7'
p9
sb.(i__main__
DBEntry
p0
(dp1
S'player_cards'
p2
(lp3
S'2'
p4
ag4
asS'classification'
p5
(S'hit'
p6
F-0.51194
tp7
sS'dealer_card'
p8
S'8'
p9
sb.(i__main__
DBEntry
p0
(dp1
S'player_cards'
p2
(lp3
S'2'
p4
ag4
asS'classification'
p5
(S'stand'
p6
F-0.54112
tp7
sS'dealer_card'
p8
S'9'
p9
sb.(i__main__
DBEntry
p0
(dp1
S'player_cards'
p2
(lp3
S'2'
p4
ag4
asS'classification'
p5
(S'stand'
p6
F-0.57242
tp7
sS'dealer_card'
p8
S'10'
p9
sb.(i__main__
DBEntry
p0
(dp1
S'player_cards'
p2
(lp3
S'2'
p4
ag4
asS'classification'
p5
(S'hit'
p6
F-0.7682
tp7
sS'dealer_card'
p8
S'A'
p9
sb.(i__main__
DBEntry
p0
(dp1
S'player_cards'
p2
(lp3
S'2'
p4
aS'3'
p5
asS'classification'
p6
(S'hit'
p7
F-0.291
tp8
sS'dealer_card'
p9
g4
sb.(i__main__
DBEntry
p0
(dp1
S'player_cards'
p2
(lp3
S'2'
p4
aS'3'
p5
asS'classification'
p6
(S'hit'
p7
F-0.25304
tp8
sS'dealer_card'
p9
g5
sb.(i__main__
DBEntry
p0
(dp1
S'player_cards'
p2
(lp3
S'2'
p4
aS'3'
p5
asS'classification'
p6
(S'hit'
p7
F-0.21206
tp8
sS'dealer_card'
p9
S'4'
p10
sb.(i__main__
DBEntry
p0
(dp1
S'player_cards'
p2
(lp3
S'2'
p4
aS'3'
p5
asS'classification'
p6
(S'hit'
p7
F-0.16526
tp8
sS'dealer_card'
p9
S'5'
p10
sb.(i__main__
DBEntry
p0
(dp1
S'player_cards'
p2
(lp3
S'2'
p4
aS'3'
p5
asS'classification'
p6
(S'stand'
p7
F-0.1553
tp8
sS'dealer_card'
p9
S'6'
p10
sb.(i__main__
DBEntry
p0
(dp1
S'player_cards'
p2
(lp3
S'2'
p4
aS'3'
p5
asS'classification'
p6
(S'hit'
p7
F-0.47312
tp8
sS'dealer_card'
p9
S'7'
p10
sb.(i__main__
DBEntry
p0
(dp1
S'player_cards'
p2
(lp3
S'2'
p4
aS'3'
p5
asS'classification'
p6
(S'stand'
p7
F-0.50792
tp8
sS'dealer_card'
p9
S'8'
p10
sb.(i__main__
DBEntry
p0
(dp1
S'player_cards'
p2
(lp3
S'2'
p4
aS'3'
p5
asS'classification'
p6
(S'hit'
p7
F-0.53886
tp8
sS'dealer_card'
p9
S'9'
p10
sb.(i__main__
DBEntry
p0
(dp1
S'player_cards'
p2
(lp3
S'2'
p4
aS'3'
p5
asS'classification'
p6
(S'stand'
p7
F-0.57578
tp8
sS'dealer_card'
p9
S'10'
p10
sb.(i__main__
DBEntry
p0
(dp1
S'player_cards'
p2
(lp3
S'2'
p4
aS'3'
p5
asS'classification'
p6
(S'hit'
p7
F-0.76778
tp8
sS'dealer_card'
p9
S'A'
p10
sb.(i__main__
DBEntry
p0
(dp1
S'player_cards'
p2
(lp3
S'2'
p4
aS'4'
p5
asS'classification'
p6
(S'hit'
p7
F-0.28248
tp8
sS'dealer_card'
p9
g4
sb.(i__main__
DBEntry
p0
(dp1
S'player_cards'
p2
(lp3
S'2'
p4
aS'4'
p5
asS'classification'
p6
(S'hit'
p7
F-0.24158
tp8
sS'dealer_card'
p9
S'3'
p10
sb.(i__main__
DBEntry
p0
(dp1
S'player_cards'
p2
(lp3
S'2'
p4
aS'4'
p5
asS'classification'
p6
(S'hit'
p7
F-0.19984
tp8
sS'dealer_card'
p9
g5
sb.(i__main__
DBEntry
p0
(dp1
S'player_cards'
p2
(lp3
S'2'
p4
aS'4'
p5
asS'classification'
p6
(S'hit'
p7
F-0.15843
tp8
sS'dealer_card'
p9
S'5'
p10
sb.(i__main__
DBEntry
p0
(dp1
S'player_cards'
p2
(lp3
S'2'
p4
aS'4'
p5
asS'classification'
p6
(S'hit'
p7
F-0.13814
tp8
sS'dealer_card'
p9
S'6'
p10
sb.(i__main__
DBEntry
p0
(dp1
S'player_cards'
p2
(lp3
S'2'
p4
aS'4'
p5
asS'classification'
p6
(S'hit'
p7
F-0.44965
tp8
sS'dealer_card'
p9
S'7'
p10
sb.(i__main__
DBEntry
p0
(dp1
S'player_cards'
p2
(lp3
S'2'
p4
aS'4'
p5
asS'classification'
p6
(S'hit'
p7
F-0.50006
tp8
sS'dealer_card'
p9
S'8'
p10
sb.(i__main__
DBEntry
p0
(dp1
S'player_cards'
p2
(lp3
S'2'
p4
aS'4'
p5
asS'classification'
p6
(S'hit'
p7
F-0.53685
tp8
sS'dealer_card'
p9
S'9'
p10
sb.(i__main__
DBEntry
p0
(dp1
S'player_cards'
p2
(lp3
S'2'
p4
aS'4'
p5
asS'classification'
p6
(S'hit'
p7
F-0.56589
tp8
sS'dealer_card'
p9
S'10'
p10
sb.(i__main__
DBEntry
p0
(dp1
S'player_cards'
p2
(lp3
S'2'
p4
aS'4'
p5
asS'classification'
p6
(S'hit'
p7
F-0.75935
tp8
sS'dealer_card'
p9
S'A'
p10
sb.(i__main__
DBEntry
p0
(dp1
S'player_cards'
p2
(lp3
S'2'
p4
aS'5'
p5
asS'classification'
p6
(S'hit'
p7
F-0.22026
tp8
sS'dealer_card'
p9
g4
sb.(i__main__
DBEntry
p0
(dp1
S'player_cards'
p2
(lp3
S'2'
p4
aS'5'
p5
asS'classification'
p6
(S'hit'
p7
F-0.17984
tp8
sS'dealer_card'
p9
S'3'
p10
sb.(i__main__
DBEntry
p0
(dp1
S'player_cards'
p2
(lp3
S'2'
p4
aS'5'
p5
asS'classification'
p6
(S'hit'
p7
F-0.13859
tp8
sS'dealer_card'
p9
S'4'
p10
sb.(i__main__
DBEntry
p0
(dp1
S'player_cards'
p2
(lp3
S'2'
p4
aS'5'
p5
asS'classification'
p6
(S'hit'
p7
F-0.10174
tp8
sS'dealer_card'
p9
g5
sb.(i__main__
DBEntry
p0
(dp1
S'player_cards'
p2
(lp3
S'2'
p4
aS'5'
p5
asS'classification'
p6
(S'hit'
p7
F-0.07331
tp8
sS'dealer_card'
p9
S'6'
p10
sb.(i__main__
DBEntry
p0
(dp1
S'player_cards'
p2
(lp3
S'2'
p4
aS'5'
p5
asS'classification'
p6
(S'hit'
p7
F-0.29502
tp8
sS'dealer_card'
p9
S'7'
p10
sb.(i__main__
DBEntry
p0
(dp1
S'player_cards'
p2
(lp3
S'2'
p4
aS'5'
p5
asS'classification'
p6
(S'hit'
p7
F-0.4238
tp8
sS'dealer_card'
p9
S'8'
p10
sb.(i__main__
DBEntry
p0
(dp1
S'player_cards'
p2
(lp3
S'2'
p4
aS'5'
p5
asS'classification'
p6
(S'hit'
p7
F-0.47846
tp8
sS'dealer_card'
p9
S'9'
p10
sb.(i__main__
DBEntry
p0
(dp1
S'player_cards'
p2
(lp3
S'2'
p4
aS'5'
p5
asS'classification'
p6
(S'hit'
p7
F-0.51651
tp8
sS'dealer_card'
p9
S'10'
p10
sb.(i__main__
DBEntry
p0
(dp1
S'player_cards'
p2
(lp3
S'2'
p4
aS'5'
p5
asS'classification'
p6
(S'hit'
p7
F-0.69897
tp8
sS'dealer_card'
p9
S'A'
p10
sb.(i__main__
DBEntry
p0
(dp1
S'player_cards'
p2
(lp3
S'2'
p4
aS'6'
p5
asS'classification'
p6
(S'hit'
p7
F-0.09632
tp8
sS'dealer_card'
p9
g4
sb.(i__main__
DBEntry
p0
(dp1
S'player_cards'
p2
(lp3
S'2'
p4
aS'6'
p5
asS'classification'
p6
(S'hit'
p7
F-0.06419
tp8
sS'dealer_card'
p9
S'3'
p10
sb.(i__main__
DBEntry
p0
(dp1
S'player_cards'
p2
(lp3
S'2'
p4
aS'6'
p5
asS'classification'
p6
(S'hit'
p7
F-0.03217
tp8
sS'dealer_card'
p9
S'4'
p10
sb.(i__main__
DBEntry
p0
(dp1
S'player_cards'
p2
(lp3
S'2'
p4
aS'6'
p5
asS'classification'
p6
(S'double_down'
p7
F0.0026
tp8
sS'dealer_card'
p9
S'5'
p10
sb.(i__main__
DBEntry
p0
(dp1
S'player_cards'
p2
(lp3
S'2'
p4
aS'6'
p5
asS'classification'
p6
(S'double_down'
p7
F0.07946
tp8
sS'dealer_card'
p9
g5
sb.(i__main__
DBEntry
p0
(dp1
S'player_cards'
p2
(lp3
S'2'
p4
aS'6'
p5
asS'classification'
p6
(S'hit'
p7
F-0.09802
tp8
sS'dealer_card'
p9
S'7'
p10
sb.(i__main__
DBEntry
p0
(dp1
S'player_cards'
p2
(lp3
S'2'
p4
aS'6'
p5
asS'classification'
p6
(S'hit'
p7
F-0.22371
tp8
sS'dealer_card'
p9
S'8'
p10
sb.(i__main__
DBEntry
p0
(dp1
S'player_cards'
p2
(lp3
S'2'
p4
aS'6'
p5
asS'classification'
p6
(S'hit'
p7
F-0.36032
tp8
sS'dealer_card'
p9
S'9'
p10
sb.(i__main__
DBEntry
p0
(dp1
S'player_cards'
p2
(lp3
S'2'
p4
aS'6'
p5
asS'classification'
p6
(S'hit'
p7
F-0.42586
tp8
sS'dealer_card'
p9
S'10'
p10
sb.(i__main__
DBEntry
p0
(dp1
S'player_cards'
p2
(lp3
S'2'
p4
aS'6'
p5
asS'classification'
p6
(S'hit'
p7
F-0.5889
tp8
sS'dealer_card'
p9
S'A'
p10
sb.(i__main__
DBEntry
p0
(dp1
S'player_cards'
p2
(lp3
S'2'
p4
aS'7'
p5
asS'classification'
p6
(S'double_down'
p7
F0.06144
tp8
sS'dealer_card'
p9
g4
sb.(i__main__
DBEntry
p0
(dp1
S'player_cards'
p2
(lp3
S'2'
p4
aS'7'
p5
asS'classification'
p6
(S'double_down'
p7
F0.12672
tp8
sS'dealer_card'
p9
S'3'
p10
sb.(i__main__
DBEntry
p0
(dp1
S'player_cards'
p2
(lp3
S'2'
p4
aS'7'
p5
asS'classification'
p6
(S'double_down'
p7
F0.17964
tp8
sS'dealer_card'
p9
S'4'
p10
sb.(i__main__
DBEntry
p0
(dp1
S'player_cards'
p2
(lp3
S'2'
p4
aS'7'
p5
asS'classification'
p6
(S'double_down'
p7
F0.23682
tp8
sS'dealer_card'
p9
S'5'
p10
sb.(i__main__
DBEntry
p0
(dp1
S'player_cards'
p2
(lp3
S'2'
p4
aS'7'
p5
asS'classification'
p6
(S'double_down'
p7
F0.31958
tp8
sS'dealer_card'
p9
S'6'
p10
sb.(i__main__
DBEntry
p0
(dp1
S'player_cards'
p2
(lp3
S'2'
p4
aS'7'
p5
asS'classification'
p6
(S'double_down'
p7
F0.10404
tp8
sS'dealer_card'
p9
g5
sb.(i__main__
DBEntry
p0
(dp1
S'player_cards'
p2
(lp3
S'2'
p4
aS'7'
p5
asS'classification'
p6
(S'hit'
p7
F-0.01382
tp8
sS'dealer_card'
p9
S'8'
p10
sb.(i__main__
DBEntry
p0
(dp1
S'player_cards'
p2
(lp3
S'2'
p4
aS'7'
p5
asS'classification'
p6
(S'hit'
p7
F-0.15397
tp8
sS'dealer_card'
p9
S'9'
p10
sb.(i__main__
DBEntry
p0
(dp1
S'player_cards'
p2
(lp3
S'2'
p4
aS'7'
p5
asS'classification'
p6
(S'hit'
p7
F-0.28991
tp8
sS'dealer_card'
p9
S'10'
p10
sb.(i__main__
DBEntry
p0
(dp1
S'player_cards'
p2
(lp3
S'2'
p4
aS'7'
p5
asS'classification'
p6
(S'hit'
p7
F-0.45804
tp8
sS'dealer_card'
p9
S'A'
p10
sb.(i__main__
DBEntry
p0
(dp1
S'player_cards'
p2
(lp3
S'2'
p4
aS'8'
p5
asS'classification'
p6
(S'double_down'
p7
F0.35422
tp8
sS'dealer_card'
p9
g4
sb.(i__main__
DBEntry
p0
(dp1
S'player_cards'
p2
(lp3
S'2'
p4
aS'8'
p5
asS'classification'
p6
(S'double_down'
p7
F0.4132
tp8
sS'dealer_card'
p9
S'3'
p10
sb.(i__main__
DBEntry
p0
(dp1
S'player_cards'
p2
(lp3
S'2'
p4
aS'8'
p5
asS'classification'
p6
(S'double_down'
p7
F0.46164
tp8
sS'dealer_card'
p9
S'4'
p10
sb.(i__main__
DBEntry
p0
(dp1
S'player_cards'
p2
(lp3
S'2'
p4
aS'8'
p5
asS'classification'
p6
(S'double_down'
p7
F0.51208
tp8
sS'dealer_card'
p9
S'5'
p10
sb.(i__main__
DBEntry
p0
(dp1
S'player_cards'
p2
(lp3
S'2'
p4
aS'8'
p5
asS'classification'
p6
(S'double_down'
p7
F0.57372
tp8
sS'dealer_card'
p9
S'6'
p10
sb.(i__main__
DBEntry
p0
(dp1
S'player_cards'
p2
(lp3
S'2'
p4
aS'8'
p5
asS'classification'
p6
(S'double_down'
p7
F0.40204
tp8
sS'dealer_card'
p9
S'7'
p10
sb.(i__main__
DBEntry
p0
(dp1
S'player_cards'
p2
(lp3
S'2'
p4
aS'8'
p5
asS'classification'
p6
(S'double_down'
p7
F0.28112
tp8
sS'dealer_card'
p9
g5
sb.(i__main__
DBEntry
p0
(dp1
S'player_cards'
p2
(lp3
S'2'
p4
aS'8'
p5
asS'classification'
p6
(S'double_down'
p7
F0.14092
tp8
sS'dealer_card'
p9
S'9'
p10
sb.(i__main__
DBEntry
p0
(dp1
S'player_cards'
p2
(lp3
S'2'
p4
aS'8'
p5
asS'classification'
p6
(S'hit'
p7
F-0.07699
tp8
sS'dealer_card'
p9
S'10'
p10
sb.(i__main__
DBEntry
p0
(dp1
S'player_cards'
p2
(lp3
S'2'
p4
aS'8'
p5
asS'classification'
p6
(S'hit'
p7
F-0.2857
tp8
sS'dealer_card'
p9
S'A'
p10
sb.(i__main__
DBEntry
p0
(dp1
S'player_cards'
p2
(lp3
S'2'
p4
aS'9'
p5
asS'classification'
p6
(S'double_down'
p7
F0.46352
tp8
sS'dealer_card'
p9
g4
sb.(i__main__
DBEntry
p0
(dp1
S'player_cards'
p2
(lp3
S'2'
p4
aS'9'
p5
asS'classification'
p6
(S'double_down'
p7
F0.5104
tp8
sS'dealer_card'
p9
S'3'
p10
sb.(i__main__
DBEntry
p0
(dp1
S'player_cards'
p2
(lp3
S'2'
p4
aS'9'
p5
asS'classification'
p6
(S'double_down'
p7
F0.55504
tp8
sS'dealer_card'
p9
S'4'
p10
sb.(i__main__
DBEntry
p0
(dp1
S'player_cards'
p2
(lp3
S'2'
p4
aS'9'
p5
asS'classification'
p6
(S'double_down'
p7
F0.61406
tp8
sS'dealer_card'
p9
S'5'
p10
sb.(i__main__
DBEntry
p0
(dp1
S'player_cards'
p2
(lp3
S'2'
p4
aS'9'
p5
asS'classification'
p6
(S'double_down'
p7
F0.6689
tp8
sS'dealer_card'
p9
S'6'
p10
sb.(i__main__
DBEntry
p0
(dp1
S'player_cards'
p2
(lp3
S'2'
p4
aS'9'
p5
asS'classification'
p6
(S'double_down'
p7
F0.4526
tp8
sS'dealer_card'
p9
S'7'
p10
sb.(i__main__
DBEntry
p0
(dp1
S'player_cards'
p2
(lp3
S'2'
p4
aS'9'
p5
asS'classification'
p6
(S'double_down'
p7
F0.3543
tp8
sS'dealer_card'
p9
S'8'
p10
sb.(i__main__
DBEntry
p0
(dp1
S'player_cards'
p2
(lp3
S'2'
p4
aS'9'
p5
asS'classification'
p6
(S'double_down'
p7
F0.22402
tp8
sS'dealer_card'
p9
g5
sb.(i__main__
DBEntry
p0
(dp1
S'player_cards'
p2
(lp3
S'2'
p4
aS'9'
p5
asS'classification'
p6
(S'double_down'
p7
F0.05842
tp8
sS'dealer_card'
p9
S'10'
p10
sb.(i__main__
DBEntry
p0
(dp1
S'player_cards'
p2
(lp3
S'2'
p4
aS'9'
p5
asS'classification'
p6
(S'hit'
p7
F-0.17328
tp8
sS'dealer_card'
p9
S'A'
p10
sb.(i__main__
DBEntry
p0
(dp1
S'player_cards'
p2
(lp3
S'2'
p4
aS'10'
p5
asS'classification'
p6
(S'hit'
p7
F-0.24969
tp8
sS'dealer_card'
p9
g4
sb.(i__main__
DBEntry
p0
(dp1
S'player_cards'
p2
(lp3
S'2'
p4
aS'10'
p5
asS'classification'
p6
(S'hit'
p7
F-0.23117
tp8
sS'dealer_card'
p9
S'3'
p10
sb.(i__main__
DBEntry
p0
(dp1
S'player_cards'
p2
(lp3
S'2'
p4
aS'10'
p5
asS'classification'
p6
(S'stand'
p7
F-0.20886
tp8
sS'dealer_card'
p9
S'4'
p10
sb.(i__main__
DBEntry
p0
(dp1
S'player_cards'
p2
(lp3
S'2'
p4
aS'10'
p5
asS'classification'
p6
(S'stand'
p7
F-0.16316
tp8
sS'dealer_card'
p9
S'5'
p10
sb.(i__main__
DBEntry
p0
(dp1
S'player_cards'
p2
(lp3
S'2'
p4
aS'10'
p5
asS'classification'
p6
(S'stand'
p7
F-0.1553
tp8
sS'dealer_card'
p9
S'6'
p10
sb.(i__main__
DBEntry
p0
(dp1
S'player_cards'
p2
(lp3
S'2'
p4
aS'10'
p5
asS'classification'
p6
(S'hit'
p7
F-0.24996
tp8
sS'dealer_card'
p9
S'7'
p10
sb.(i__main__
DBEntry
p0
(dp1
S'player_cards'
p2
(lp3
S'2'
p4
aS'10'
p5
asS'classification'
p6
(S'hit'
p7
F-0.30778
tp8
sS'dealer_card'
p9
S'8'
p10
sb.(i__main__
DBEntry
p0
(dp1
S'player_cards'
p2
(lp3
S'2'
p4
aS'10'
p5
asS'classification'
p6
(S'hit'
p7
F-0.37181
tp8
sS'dealer_card'
p9
S'9'
p10
sb.(i__main__
DBEntry
p0
(dp1
S'player_cards'
p2
(lp3
S'2'
p4
aS'10'
p5
asS'classification'
p6
(S'hit'
p7
F-0.43157
tp8
sS'dealer_card'
p9
g5
sb.(i__main__
DBEntry
p0
(dp1
S'player_cards'
p2
(lp3
S'2'
p4
aS'10'
p5
asS'classification'
p6
(S'hit'
p7
F-0.57215
tp8
sS'dealer_card'
p9
S'A'
p10
sb.(i__main__
DBEntry
p0
(dp1
S'player_cards'
p2
(lp3
S'2'
p4
aS'A'
p5
asS'classification'
p6
(S'hit'
p7
F-0.03509
tp8
sS'dealer_card'
p9
g4
sb.(i__main__
DBEntry
p0
(dp1
S'player_cards'
p2
(lp3
S'2'
p4
aS'A'
p5
asS'classification'
p6
(S'hit'
p7
F-0.00033
tp8
sS'dealer_card'
p9
S'3'
p10
sb.(i__main__
DBEntry
p0
(dp1
S'player_cards'
p2
(lp3
S'2'
p4
aS'A'
p5
asS'classification'
p6
(S'double_down'
p7
F0.05352
tp8
sS'dealer_card'
p9
S'4'
p10
sb.(i__main__
DBEntry
p0
(dp1
S'player_cards'
p2
(lp3
S'2'
p4
aS'A'
p5
asS'classification'
p6
(S'double_down'
p7
F0.11892
tp8
sS'dealer_card'
p9
S'5'
p10
sb.(i__main__
DBEntry
p0
(dp1
S'player_cards'
p2
(lp3
S'2'
p4
aS'A'
p5
asS'classification'
p6
(S'double_down'
p7
F0.17986
tp8
sS'dealer_card'
p9
S'6'
p10
sb.(i__main__
DBEntry
p0
(dp1
S'player_cards'
p2
(lp3
S'2'
p4
aS'A'
p5
asS'classification'
p6
(S'hit'
p7
F-0.09073
tp8
sS'dealer_card'
p9
S'7'
p10
sb.(i__main__
DBEntry
p0
(dp1
S'player_cards'
p2
(lp3
S'2'
p4
aS'A'
p5
asS'classification'
p6
(S'hit'
p7
F-0.15032
tp8
sS'dealer_card'
p9
S'8'
p10
sb.(i__main__
DBEntry
p0
(dp1
S'player_cards'
p2
(lp3
S'2'
p4
aS'A'
p5
asS'classification'
p6
(S'hit'
p7
F-0.22783
tp8
sS'dealer_card'
p9
S'9'
p10
sb.(i__main__
DBEntry
p0
(dp1
S'player_cards'
p2
(lp3
S'2'
p4
aS'A'
p5
asS'classification'
p6
(S'hit'
p7
F-0.30835
tp8
sS'dealer_card'
p9
S'10'
p10
sb.(i__main__
DBEntry
p0
(dp1
S'player_cards'
p2
(lp3
S'2'
p4
aS'A'
p5
asS'classification'
p6
(S'hit'
p7
F-0.49504
tp8
sS'dealer_card'
p9
g5
sb.(i__main__
DBEntry
p0
(dp1
S'player_cards'
p2
(lp3
S'3'
p4
ag4
asS'classification'
p5
(S'hit'
p6
F-0.2784
tp7
sS'dealer_card'
p8
S'2'
p9
sb.(i__main__
DBEntry
p0
(dp1
S'player_cards'
p2
(lp3
S'3'
p4
ag4
asS'classification'
p5
(S'hit'
p6
F-0.24096
tp7
sS'dealer_card'
p8
g4
sb.(i__main__
DBEntry
p0
(dp1
S'player_cards'
p2
(lp3
S'3'
p4
ag4
asS'classification'
p5
(S'hit'
p6
F-0.20316
tp7
sS'dealer_card'
p8
S'4'
p9
sb.(i__main__
DBEntry
p0
(dp1
S'player_cards'
p2
(lp3
S'3'
p4
ag4
asS'classification'
p5
(S'hit'
p6
F-0.15953
tp7
sS'dealer_card'
p8
S'5'
p9
sb.(i__main__
DBEntry
p0
(dp1
S'player_cards'
p2
(lp3
S'3'
p4
ag4
asS'classification'
p5
(S'hit'
p6
F-0.14061
tp7
sS'dealer_card'
p8
S'6'
p9
sb.(i__main__
DBEntry
p0
(dp1
S'player_cards'
p2
(lp3
S'3'
p4
ag4
asS'classification'
p5
(S'hit'
p6
F-0.44862
tp7
sS'dealer_card'
p8
S'7'
p9
sb.(i__main__
DBEntry
p0
(dp1
S'player_cards'
p2
(lp3
S'3'
p4
ag4
asS'classification'
p5
(S'hit'
p6
F-0.49829
tp7
sS'dealer_card'
p8
S'8'
p9
sb.(i__main__
DBEntry
p0
(dp1
S'player_cards'
p2
(lp3
S'3'
p4
ag4
asS'classification'
p5
(S'hit'
p6
F-0.53224
tp7
sS'dealer_card'
p8
S'9'
p9
sb.(i__main__
DBEntry
p0
(dp1
S'player_cards'
p2
(lp3
S'3'
p4
ag4
asS'classification'
p5
(S'hit'
p6
F-0.56728
tp7
sS'dealer_card'
p8
S'10'
p9
sb.(i__main__
DBEntry
p0
(dp1
S'player_cards'
p2
(lp3
S'3'
p4
ag4
asS'classification'
p5
(S'hit'
p6
F-0.76169
tp7
sS'dealer_card'
p8
S'A'
p9
sb.(i__main__
DBEntry
p0
(dp1
S'player_cards'
p2
(lp3
S'3'
p4
aS'4'
p5
asS'classification'
p6
(S'hit'
p7
F-0.21587
tp8
sS'dealer_card'
p9
S'2'
p10
sb.(i__main__
DBEntry
p0
(dp1
S'player_cards'
p2
(lp3
S'3'
p4
aS'4'
p5
asS'classification'
p6
(S'hit'
p7
F-0.17883
tp8
sS'dealer_card'
p9
g4
sb.(i__main__
DBEntry
p0
(dp1
S'player_cards'
p2
(lp3
S'3'
p4
aS'4'
p5
asS'classification'
p6
(S'hit'
p7
F-0.1413
tp8
sS'dealer_card'
p9
g5
sb.(i__main__
DBEntry
p0
(dp1
S'player_cards'
p2
(lp3
S'3'
p4
aS'4'
p5
asS'classification'
p6
(S'hit'
p7
F-0.09818
tp8
sS'dealer_card'
p9
S'5'
p10
sb.(i__main__
DBEntry
p0
(dp1
S'player_cards'
p2
(lp3
S'3'
p4
aS'4'
p5
asS'classification'
p6
(S'hit'
p7
F-0.06819
tp8
sS'dealer_card'
p9
S'6'
p10
sb.(i__main__
DBEntry
p0
(dp1
S'player_cards'
p2
(lp3
S'3'
p4
aS'4'
p5
asS'classification'
p6
(S'hit'
p7
F-0.29571
tp8
sS'dealer_card'
p9
S'7'
p10
sb.(i__main__
DBEntry
p0
(dp1
S'player_cards'
p2
(lp3
S'3'
p4
aS'4'
p5
asS'classification'
p6
(S'hit'
p7
F-0.42412
tp8
sS'dealer_card'
p9
S'8'
p10
sb.(i__main__
DBEntry
p0
(dp1
S'player_cards'
p2
(lp3
S'3'
p4
aS'4'
p5
asS'classification'
p6
(S'hit'
p7
F-0.48326
tp8
sS'dealer_card'
p9
S'9'
p10
sb.(i__main__
DBEntry
p0
(dp1
S'player_cards'
p2
(lp3
S'3'
p4
aS'4'
p5
asS'classification'
p6
(S'hit'
p7
F-0.51391
tp8
sS'dealer_card'
p9
S'10'
p10
sb.(i__main__
DBEntry
p0
(dp1
S'player_cards'
p2
(lp3
S'3'
p4
aS'4'
p5
asS'classification'
p6
(S'hit'
p7
F-0.69734
tp8
sS'dealer_card'
p9
S'A'
p10
sb.(i__main__
DBEntry
p0
(dp1
S'player_cards'
p2
(lp3
S'3'
p4
aS'5'
p5
asS'classification'
p6
(S'hit'
p7
F-0.10364
tp8
sS'dealer_card'
p9
S'2'
p10
sb.(i__main__
DBEntry
p0
(dp1
S'player_cards'
p2
(lp3
S'3'
p4
aS'5'
p5
asS'classification'
p6
(S'hit'
p7
F-0.06769
tp8
sS'dealer_card'
p9
g4
sb.(i__main__
DBEntry
p0
(dp1
S'player_cards'
p2
(lp3
S'3'
p4
aS'5'
p5
asS'classification'
p6
(S'hit'
p7
F-0.03379
tp8
sS'dealer_card'
p9
S'4'
p10
sb.(i__main__
DBEntry
p0
(dp1
S'player_cards'
p2
(lp3
S'3'
p4
aS'5'
p5
asS'classification'
p6
(S'double_down'
p7
F0.01342
tp8
sS'dealer_card'
p9
g5
sb.(i__main__
DBEntry
p0
(dp1
S'player_cards'
p2
(lp3
S'3'
p4
aS'5'
p5
asS'classification'
p6
(S'double_down'
p7
F0.0911
tp8
sS'dealer_card'
p9
S'6'
p10
sb.(i__main__
DBEntry
p0
(dp1
S'player_cards'
p2
(lp3
S'3'
p4
aS'5'
p5
asS'classification'
p6
(S'hit'
p7
F-0.09623
tp8
sS'dealer_card'
p9
S'7'
p10
sb.(i__main__
DBEntry
p0
(dp1
S'player_cards'
p2
(lp3
S'3'
p4
aS'5'
p5
asS'classification'
p6
(S'hit'
p7
F-0.22286
tp8
sS'dealer_card'
p9
S'8'
p10
sb.(i__main__
DBEntry
p0
(dp1
S'player_cards'
p2
(lp3
S'3'
p4
aS'5'
p5
asS'classification'
p6
(S'hit'
p7
F-0.35683
tp8
sS'dealer_card'
p9
S'9'
p10
sb.(i__main__
DBEntry
p0
(dp1
S'player_cards'
p2
(lp3
S'3'
p4
aS'5'
p5
asS'classification'
p6
(S'hit'
p7
F-0.42898
tp8
sS'dealer_card'
p9
S'10'
p10
sb.(i__main__
DBEntry
p0
(dp1
S'player_cards'
p2
(lp3
S'3'
p4
aS'5'
p5
asS'classification'
p6
(S'hit'
p7
F-0.58945
tp8
sS'dealer_card'
p9
S'A'
p10
sb.(i__main__
DBEntry
p0
(dp1
S'player_cards'
p2
(lp3
S'3'
p4
aS'6'
p5
asS'classification'
p6
(S'double_down'
p7
F0.05078
tp8
sS'dealer_card'
p9
S'2'
p10
sb.(i__main__
DBEntry
p0
(dp1
S'player_cards'
p2
(lp3
S'3'
p4
aS'6'
p5
asS'classification'
p6
(S'double_down'
p7
F0.11944
tp8
sS'dealer_card'
p9
g4
sb.(i__main__
DBEntry
p0
(dp1
S'player_cards'
p2
(lp3
S'3'
p4
aS'6'
p5
asS'classification'
p6
(S'double_down'
p7
F0.18498
tp8
sS'dealer_card'
p9
S'4'
p10
sb.(i__main__
DBEntry
p0
(dp1
S'player_cards'
p2
(lp3
S'3'
p4
aS'6'
p5
asS'classification'
p6
(S'double_down'
p7
F0.2526
tp8
sS'dealer_card'
p9
S'5'
p10
sb.(i__main__
DBEntry
p0
(dp1
S'player_cards'
p2
(lp3
S'3'
p4
aS'6'
p5
asS'classification'
p6
(S'double_down'
p7
F0.3137
tp8
sS'dealer_card'
p9
g5
sb.(i__main__
DBEntry
p0
(dp1
S'player_cards'
p2
(lp3
S'3'
p4
aS'6'
p5
asS'classification'
p6
(S'double_down'
p7
F0.10888
tp8
sS'dealer_card'
p9
S'7'
p10
sb.(i__main__
DBEntry
p0
(dp1
S'player_cards'
p2
(lp3
S'3'
p4
aS'6'
p5
asS'classification'
p6
(S'hit'
p7
F-0.01184
tp8
sS'dealer_card'
p9
S'8'
p10
sb.(i__main__
DBEntry
p0
(dp1
S'player_cards'
p2
(lp3
S'3'
p4
aS'6'
p5
asS'classification'
p6
(S'hit'
p7
F-0.1475
tp8
sS'dealer_card'
p9
S'9'
p10
sb.(i__main__
DBEntry
p0
(dp1
S'player_cards'
p2
(lp3
S'3'
p4
aS'6'
p5
asS'classification'
p6
(S'hit'
p7
F-0.29523
tp8
sS'dealer_card'
p9
S'10'
p10
sb.(i__main__
DBEntry
p0
(dp1
S'player_cards'
p2
(lp3
S'3'
p4
aS'6'
p5
asS'classification'
p6
(S'hit'
p7
F-0.46037
tp8
sS'dealer_card'
p9
S'A'
p10
sb.(i__main__
DBEntry
p0
(dp1
S'player_cards'
p2
(lp3
S'3'
p4
aS'7'
p5
asS'classification'
p6
(S'double_down'
p7
F0.35724
tp8
sS'dealer_card'
p9
S'2'
p10
sb.(i__main__
DBEntry
p0
(dp1
S'player_cards'
p2
(lp3
S'3'
p4
aS'7'
p5
asS'classification'
p6
(S'double_down'
p7
F0.41438
tp8
sS'dealer_card'
p9
g4
sb.(i__main__
DBEntry
p0
(dp1
S'player_cards'
p2
(lp3
S'3'
p4
aS'7'
p5
asS'classification'
p6
(S'double_down'
p7
F0.44424
tp8
sS'dealer_card'
p9
S'4'
p10
sb.(i__main__
DBEntry
p0
(dp1
S'player_cards'
p2
(lp3
S'3'
p4
aS'7'
p5
asS'classification'
p6
(S'double_down'
p7
F0.52054
tp8
sS'dealer_card'
p9
S'5'
p10
sb.(i__main__
DBEntry
p0
(dp1
S'player_cards'
p2
(lp3
S'3'
p4
aS'7'
p5
asS'classification'
p6
(S'double_down'
p7
F0.56554
tp8
sS'dealer_card'
p9
S'6'
p10
sb.(i__main__
DBEntry
p0
(dp1
S'player_cards'
p2
(lp3
S'3'
p4
aS'7'
p5
asS'classification'
p6
(S'double_down'
p7
F0.39418
tp8
sS'dealer_card'
p9
g5
sb.(i__main__
DBEntry
p0
(dp1
S'player_cards'
p2
(lp3
S'3'
p4
aS'7'
p5
asS'classification'
p6
(S'double_down'
p7
F0.29178
tp8
sS'dealer_card'
p9
S'8'
p10
sb.(i__main__
DBEntry
p0
(dp1
S'player_cards'
p2
(lp3
S'3'
p4
aS'7'
p5
asS'classification'
p6
(S'double_down'
p7
F0.14786
tp8
sS'dealer_card'
p9
S'9'
p10
sb.(i__main__
DBEntry
p0
(dp1
S'player_cards'
p2
(lp3
S'3'
p4
aS'7'
p5
asS'classification'
p6
(S'hit'
p7
F-0.07411
tp8
sS'dealer_card'
p9
S'10'
p10
sb.(i__main__
DBEntry
p0
(dp1
S'player_cards'
p2
(lp3
S'3'
p4
aS'7'
p5
asS'classification'
p6
(S'hit'
p7
F-0.28612
tp8
sS'dealer_card'
p9
S'A'
p10
sb.(i__main__
DBEntry
p0
(dp1
S'player_cards'
p2
(lp3
S'3'
p4
aS'8'
p5
asS'classification'
p6
(S'double_down'
p7
F0.46222
tp8
sS'dealer_card'
p9
S'2'
p10
sb.(i__main__
DBEntry
p0
(dp1
S'player_cards'
p2
(lp3
S'3'
p4
aS'8'
p5
asS'classification'
p6
(S'double_down'
p7
F0.51842
tp8
sS'dealer_card'
p9
g4
sb.(i__main__
DBEntry
p0
(dp1
S'player_cards'
p2
(lp3
S'3'
p4
aS'8'
p5
asS'classification'
p6
(S'double_down'
p7
F0.5655
tp8
sS'dealer_card'
p9
S'4'
p10
sb.(i__main__
DBEntry
p0
(dp1
S'player_cards'
p2
(lp3
S'3'
p4
aS'8'
p5
asS'classification'
p6
(S'double_down'
p7
F0.61298
tp8
sS'dealer_card'
p9
S'5'
p10
sb.(i__main__
DBEntry
p0
(dp1
S'player_cards'
p2
(lp3
S'3'
p4
aS'8'
p5
asS'classification'
p6
(S'double_down'
p7
F0.66788
tp8
sS'dealer_card'
p9
S'6'
p10
sb.(i__main__
DBEntry
p0
(dp1
S'player_cards'
p2
(lp3
S'3'
p4
aS'8'
p5
asS'classification'
p6
(S'double_down'
p7
F0.46954
tp8
sS'dealer_card'
p9
S'7'
p10
sb.(i__main__
DBEntry
p0
(dp1
S'player_cards'
p2
(lp3
S'3'
p4
aS'8'
p5
asS'classification'
p6
(S'double_down'
p7
F0.35814
tp8
sS'dealer_card'
p9
g5
sb.(i__main__
DBEntry
p0
(dp1
S'player_cards'
p2
(lp3
S'3'
p4
aS'8'
p5
asS'classification'
p6
(S'double_down'
p7
F0.22592
tp8
sS'dealer_card'
p9
S'9'
p10
sb.(i__main__
DBEntry
p0
(dp1
S'player_cards'
p2
(lp3
S'3'
p4
aS'8'
p5
asS'classification'
p6
(S'double_down'
p7
F0.05486
tp8
sS'dealer_card'
p9
S'10'
p10
sb.(i__main__
DBEntry
p0
(dp1
S'player_cards'
p2
(lp3
S'3'
p4
aS'8'
p5
asS'classification'
p6
(S'hit'
p7
F-0.17145
tp8
sS'dealer_card'
p9
S'A'
p10
sb.(i__main__
DBEntry
p0
(dp1
S'player_cards'
p2
(lp3
S'3'
p4
aS'9'
p5
asS'classification'
p6
(S'hit'
p7
F-0.25603
tp8
sS'dealer_card'
p9
S'2'
p10
sb.(i__main__
DBEntry
p0
(dp1
S'player_cards'
p2
(lp3
S'3'
p4
aS'9'
p5
asS'classification'
p6
(S'hit'
p7
F-0.23178
tp8
sS'dealer_card'
p9
g4
sb.(i__main__
DBEntry
p0
(dp1
S'player_cards'
p2
(lp3
S'3'
p4
aS'9'
p5
asS'classification'
p6
(S'stand'
p7
F-0.20884
tp8
sS'dealer_card'
p9
S'4'
p10
sb.(i__main__
DBEntry
p0
(dp1
S'player_cards'
p2
(lp3
S'3'
p4
aS'9'
p5
asS'classification'
p6
(S'stand'
p7
F-0.16516
tp8
sS'dealer_card'
p9
S'5'
p10
sb.(i__main__
DBEntry
p0
(dp1
S'player_cards'
p2
(lp3
S'3'
p4
aS'9'
p5
asS'classification'
p6
(S'stand'
p7
F-0.1482
tp8
sS'dealer_card'
p9
S'6'
p10
sb.(i__main__
DBEntry
p0
(dp1
S'player_cards'
p2
(lp3
S'3'
p4
aS'9'
p5
asS'classification'
p6
(S'hit'
p7
F-0.2522
tp8
sS'dealer_card'
p9
S'7'
p10
sb.(i__main__
DBEntry
p0
(dp1
S'player_cards'
p2
(lp3
S'3'
p4
aS'9'
p5
asS'classification'
p6
(S'hit'
p7
F-0.30457
tp8
sS'dealer_card'
p9
S'8'
p10
sb.(i__main__
DBEntry
p0
(dp1
S'player_cards'
p2
(lp3
S'3'
p4
aS'9'
p5
asS'classification'
p6
(S'hit'
p7
F-0.37105
tp8
sS'dealer_card'
p9
g5
sb.(i__main__
DBEntry
p0
(dp1
S'player_cards'
p2
(lp3
S'3'
p4
aS'9'
p5
asS'classification'
p6
(S'hit'
p7
F-0.43555
tp8
sS'dealer_card'
p9
S'10'
p10
sb.(i__main__
DBEntry
p0
(dp1
S'player_cards'
p2
(lp3
S'3'
p4
aS'9'
p5
asS'classification'
p6
(S'hit'
p7
F-0.57214
tp8
sS'dealer_card'
p9
S'A'
p10
sb.(i__main__
DBEntry
p0
(dp1
S'player_cards'
p2
(lp3
S'3'
p4
aS'10'
p5
asS'classification'
p6
(S'stand'
p7
F-0.29512
tp8
sS'dealer_card'
p9
S'2'
p10
sb.(i__main__
DBEntry
p0
(dp1
S'player_cards'
p2
(lp3
S'3'
p4
aS'10'
p5
asS'classification'
p6
(S'stand'
p7
F-0.25204
tp8
sS'dealer_card'
p9
g4
sb.(i__main__
DBEntry
p0
(dp1
S'player_cards'
p2
(lp3
S'3'
p4
aS'10'
p5
asS'classification'
p6
(S'stand'
p7
F-0.21208
tp8
sS'dealer_card'
p9
S'4'
p10
sb.(i__main__
DBEntry
p0
(dp1
S'player_cards'
p2
(lp3
S'3'
p4
aS'10'
p5
asS'classification'
p6
(S'stand'
p7
F-0.16814
tp8
sS'dealer_card'
p9
S'5'
p10
sb.(i__main__
DBEntry
p0
(dp1
S'player_cards'
p2
(lp3
S'3'
p4
aS'10'
p5
asS'classification'
p6
(S'stand'
p7
F-0.153
tp8
sS'dealer_card'
p9
S'6'
p10
sb.(i__main__
DBEntry
p0
(dp1
S'player_cards'
p2
(lp3
S'3'
p4
aS'10'
p5
asS'classification'
p6
(S'hit'
p7
F-0.29634
tp8
sS'dealer_card'
p9
S'7'
p10
sb.(i__main__
DBEntry
p0
(dp1
S'player_cards'
p2
(lp3
S'3'
p4
aS'10'
p5
asS'classification'
p6
(S'hit'
p7
F-0.34479
tp8
sS'dealer_card'
p9
S'8'
p10
sb.(i__main__
DBEntry
p0
(dp1
S'player_cards'
p2
(lp3
S'3'
p4
aS'10'
p5
asS'classification'
p6
(S'hit'
p7
F-0.40113
tp8
sS'dealer_card'
p9
S'9'
p10
sb.(i__main__
DBEntry
p0
(dp1
S'player_cards'
p2
(lp3
S'3'
p4
aS'10'
p5
asS'classification'
p6
(S'hit'
p7
F-0.46941
tp8
sS'dealer_card'
p9
g5
sb.(i__main__
DBEntry
p0
(dp1
S'player_cards'
p2
(lp3
S'3'
p4
aS'10'
p5
asS'classification'
p6
(S'hit'
p7
F-0.58663
tp8
sS'dealer_card'
p9
S'A'
p10
sb.(i__main__
DBEntry
p0
(dp1
S'player_cards'
p2
(lp3
S'3'
p4
aS'A'
p5
asS'classification'
p6
(S'hit'
p7
F-0.04076
tp8
sS'dealer_card'
p9
S'2'
p10
sb.(i__main__
DBEntry
p0
(dp1
S'player_cards'
p2
(lp3
S'3'
p4
aS'A'
p5
asS'classification'
p6
(S'hit'
p7
F-0.00364
tp8
sS'dealer_card'
p9
g4
sb.(i__main__
DBEntry
p0
(dp1
S'player_cards'
p2
(lp3
S'3'
p4
aS'A'
p5
asS'classification'
p6
(S'double_down'
p7
F0.06226
tp8
sS'dealer_card'
p9
S'4'
p10
sb.(i__main__
DBEntry
p0
(dp1
S'player_cards'
p2
(lp3
S'3'
p4
aS'A'
p5
asS'classification'
p6
(S'double_down'
p7
F0.13002
tp8
sS'dealer_card'
p9
S'5'
p10
sb.(i__main__
DBEntry
p0
(dp1
S'player_cards'
p2
(lp3
S'3'
p4
aS'A'
p5
asS'classification'
p6
(S'double_down'
p7
F0.17934
tp8
sS'dealer_card'
p9
S'6'
p10
sb.(i__main__
DBEntry
p0
(dp1
S'player_cards'
p2
(lp3
S'3'
p4
aS'A'
p5
asS'classification'
p6
(S'hit'
p7
F-0.09626
tp8
sS'dealer_card'
p9
S'7'
p10
sb.(i__main__
DBEntry
p0
(dp1
S'player_cards'
p2
(lp3
S'3'
p4
aS'A'
p5
asS'classification'
p6
(S'hit'
p7
F-0.15327
tp8
sS'dealer_card'
p9
S'8'
p10
sb.(i__main__
DBEntry
p0
(dp1
S'player_cards'
p2
(lp3
S'3'
p4
aS'A'
p5
asS'classification'
p6
(S'hit'
p7
F-0.22783
tp8
sS'dealer_card'
p9
S'9'
p10
sb.(i__main__
DBEntry
p0
(dp1
S'player_cards'
p2
(lp3
S'3'
p4
aS'A'
p5
asS'classification'
p6
(S'hit'
p7
F-0.31042
tp8
sS'dealer_card'
p9
S'10'
p10
sb.(i__main__
DBEntry
p0
(dp1
S'player_cards'
p2
(lp3
S'3'
p4
aS'A'
p5
asS'classification'
p6
(S'hit'
p7
F-0.50251
tp8
sS'dealer_card'
p9
g5
sb.(i__main__
DBEntry
p0
(dp1
S'player_cards'
p2
(lp3
S'4'
p4
ag4
asS'classification'
p5
(S'hit'
p6
F-0.10417
tp7
sS'dealer_card'
p8
S'2'
p9
sb.(i__main__
DBEntry
p0
(dp1
S'player_cards'
p2
(lp3
S'4'
p4
ag4
asS'classification'
p5
(S'hit'
p6
F-0.06753
tp7
sS'dealer_card'
p8
S'3'
p9
sb.(i__main__
DBEntry
p0
(dp1
S'player_cards'
p2
(lp3
S'4'
p4
ag4
asS'classification'
p5
(S'hit'
p6
F-0.03848
tp7
sS'dealer_card'
p8
g4
sb.(i__main__
DBEntry
p0
(dp1
S'player_cards'
p2
(lp3
S'4'
p4
ag4
asS'classification'
p5
(S'double_down'
p6
F0.01136
tp7
sS'dealer_card'
p8
S'5'
p9
sb.(i__main__
DBEntry
p0
(dp1
S'player_cards'
p2
(lp3
S'4'
p4
ag4
asS'classification'
p5
(S'double_down'
p6
F0.08328
tp7
sS'dealer_card'
p8
S'6'
p9
sb.(i__main__
DBEntry
p0
(dp1
S'player_cards'
p2
(lp3
S'4'
p4
ag4
asS'classification'
p5
(S'hit'
p6
F-0.08431
tp7
sS'dealer_card'
p8
S'7'
p9
sb.(i__main__
DBEntry
p0
(dp1
S'player_cards'
p2
(lp3
S'4'
p4
ag4
asS'classification'
p5
(S'hit'
p6
F-0.23029
tp7
sS'dealer_card'
p8
S'8'
p9
sb.(i__main__
DBEntry
p0
(dp1
S'player_cards'
p2
(lp3
S'4'
p4
ag4
asS'classification'
p5
(S'hit'
p6
F-0.35945
tp7
sS'dealer_card'
p8
S'9'
p9
sb.(i__main__
DBEntry
p0
(dp1
S'player_cards'
p2
(lp3
S'4'
p4
ag4
asS'classification'
p5
(S'hit'
p6
F-0.42223
tp7
sS'dealer_card'
p8
S'10'
p9
sb.(i__main__
DBEntry
p0
(dp1
S'player_cards'
p2
(lp3
S'4'
p4
ag4
asS'classification'
p5
(S'hit'
p6
F-0.58549
tp7
sS'dealer_card'
p8
S'A'
p9
sb.(i__main__
DBEntry
p0
(dp1
S'player_cards'
p2
(lp3
S'4'
p4
aS'5'
p5
asS'classification'
p6
(S'double_down'
p7
F0.0594
tp8
sS'dealer_card'
p9
S'2'
p10
sb.(i__main__
DBEntry
p0
(dp1
S'player_cards'
p2
(lp3
S'4'
p4
aS'5'
p5
asS'classification'
p6
(S'double_down'
p7
F0.11678
tp8
sS'dealer_card'
p9
S'3'
p10
sb.(i__main__
DBEntry
p0
(dp1
S'player_cards'
p2
(lp3
S'4'
p4
aS'5'
p5
asS'classification'
p6
(S'double_down'
p7
F0.18522
tp8
sS'dealer_card'
p9
g4
sb.(i__main__
DBEntry
p0
(dp1
S'player_cards'
p2
(lp3
S'4'
p4
aS'5'
p5
asS'classification'
p6
(S'double_down'
p7
F0.24306
tp8
sS'dealer_card'
p9
g5
sb.(i__main__
DBEntry
p0
(dp1
S'player_cards'
p2
(lp3
S'4'
p4
aS'5'
p5
asS'classification'
p6
(S'double_down'
p7
F0.32472
tp8
sS'dealer_card'
p9
S'6'
p10
sb.(i__main__
DBEntry
p0
(dp1
S'player_cards'
p2
(lp3
S'4'
p4
aS'5'
p5
asS'classification'
p6
(S'double_down'
p7
F0.0879
tp8
sS'dealer_card'
p9
S'7'
p10
sb.(i__main__
DBEntry
p0
(dp1
S'player_cards'
p2
(lp3
S'4'
p4
aS'5'
p5
asS'classification'
p6
(S'hit'
p7
F-0.01224
tp8
sS'dealer_card'
p9
S'8'
p10
sb.(i__main__
DBEntry
p0
(dp1
S'player_cards'
p2
(lp3
S'4'
p4
aS'5'
p5
asS'classification'
p6
(S'hit'
p7
F-0.15326
tp8
sS'dealer_card'
p9
S'9'
p10
sb.(i__main__
DBEntry
p0
(dp1
S'player_cards'
p2
(lp3
S'4'
p4
aS'5'
p5
asS'classification'
p6
(S'hit'
p7
F-0.29256
tp8
sS'dealer_card'
p9
S'10'
p10
sb.(i__main__
DBEntry
p0
(dp1
S'player_cards'
p2
(lp3
S'4'
p4
aS'5'
p5
asS'classification'
p6
(S'hit'
p7
F-0.45566
tp8
sS'dealer_card'
p9
S'A'
p10
sb.(i__main__
DBEntry
p0
(dp1
S'player_cards'
p2
(lp3
S'4'
p4
aS'6'
p5
asS'classification'
p6
(S'double_down'
p7
F0.3553
tp8
sS'dealer_card'
p9
S'2'
p10
sb.(i__main__
DBEntry
p0
(dp1
S'player_cards'
p2
(lp3
S'4'
p4
aS'6'
p5
asS'classification'
p6
(S'double_down'
p7
F0.40048
tp8
sS'dealer_card'
p9
S'3'
p10
sb.(i__main__
DBEntry
p0
(dp1
S'player_cards'
p2
(lp3
S'4'
p4
aS'6'
p5
asS'classification'
p6
(S'double_down'
p7
F0.454
tp8
sS'dealer_card'
p9
g4
sb.(i__main__
DBEntry
p0
(dp1
S'player_cards'
p2
(lp3
S'4'
p4
aS'6'
p5
asS'classification'
p6
(S'double_down'
p7
F0.51914
tp8
sS'dealer_card'
p9
S'5'
p10
sb.(i__main__
DBEntry
p0
(dp1
S'player_cards'
p2
(lp3
S'4'
p4
aS'6'
p5
asS'classification'
p6
(S'double_down'
p7
F0.57292
tp8
sS'dealer_card'
p9
g5
sb.(i__main__
DBEntry
p0
(dp1
S'player_cards'
p2
(lp3
S'4'
p4
aS'6'
p5
asS'classification'
p6
(S'double_down'
p7
F0.39696
tp8
sS'dealer_card'
p9
S'7'
p10
sb.(i__main__
DBEntry
p0
(dp1
S'player_cards'
p2
(lp3
S'4'
p4
aS'6'
p5
asS'classification'
p6
(S'double_down'
p7
F0.28006
tp8
sS'dealer_card'
p9
S'8'
p10
sb.(i__main__
DBEntry
p0
(dp1
S'player_cards'
p2
(lp3
S'4'
p4
aS'6'
p5
asS'classification'
p6
(S'double_down'
p7
F0.14972
tp8
sS'dealer_card'
p9
S'9'
p10
sb.(i__main__
DBEntry
p0
(dp1
S'player_cards'
p2
(lp3
S'4'
p4
aS'6'
p5
asS'classification'
p6
(S'hit'
p7
F-0.07487
tp8
sS'dealer_card'
p9
S'10'
p10
sb.(i__main__
DBEntry
p0
(dp1
S'player_cards'
p2
(lp3
S'4'
p4
aS'6'
p5
asS'classification'
p6
(S'hit'
p7
F-0.28385
tp8
sS'dealer_card'
p9
S'A'
p10
sb.(i__main__
DBEntry
p0
(dp1
S'player_cards'
p2
(lp3
S'4'
p4
aS'7'
p5
asS'classification'
p6
(S'double_down'
p7
F0.46998
tp8
sS'dealer_card'
p9
S'2'
p10
sb.(i__main__
DBEntry
p0
(dp1
S'player_cards'
p2
(lp3
S'4'
p4
aS'7'
p5
asS'classification'
p6
(S'double_down'
p7
F0.52432
tp8
sS'dealer_card'
p9
S'3'
p10
sb.(i__main__
DBEntry
p0
(dp1
S'player_cards'
p2
(lp3
S'4'
p4
aS'7'
p5
asS'classification'
p6
(S'double_down'
p7
F0.56538
tp8
sS'dealer_card'
p9
g4
sb.(i__main__
DBEntry
p0
(dp1
S'player_cards'
p2
(lp3
S'4'
p4
aS'7'
p5
asS'classification'
p6
(S'double_down'
p7
F0.61348
tp8
sS'dealer_card'
p9
S'5'
p10
sb.(i__main__
DBEntry
p0
(dp1
S'player_cards'
p2
(lp3
S'4'
p4
aS'7'
p5
asS'classification'
p6
(S'double_down'
p7
F0.66216
tp8
sS'dealer_card'
p9
S'6'
p10
sb.(i__main__
DBEntry
p0
(dp1
S'player_cards'
p2
(lp3
S'4'
p4
aS'7'
p5
asS'classification'
p6
(S'double_down'
p7
F0.4573
tp8
sS'dealer_card'
p9
g5
sb.(i__main__
DBEntry
p0
(dp1
S'player_cards'
p2
(lp3
S'4'
p4
aS'7'
p5
asS'classification'
p6
(S'double_down'
p7
F0.34848
tp8
sS'dealer_card'
p9
S'8'
p10
sb.(i__main__
DBEntry
p0
(dp1
S'player_cards'
p2
(lp3
S'4'
p4
aS'7'
p5
asS'classification'
p6
(S'double_down'
p7
F0.23292
tp8
sS'dealer_card'
p9
S'9'
p10
sb.(i__main__
DBEntry
p0
(dp1
S'player_cards'
p2
(lp3
S'4'
p4
aS'7'
p5
asS'classification'
p6
(S'double_down'
p7
F0.06598
tp8
sS'dealer_card'
p9
S'10'
p10
sb.(i__main__
DBEntry
p0
(dp1
S'player_cards'
p2
(lp3
S'4'
p4
aS'7'
p5
asS'classification'
p6
(S'hit'
p7
F-0.17403
tp8
sS'dealer_card'
p9
S'A'
p10
sb.(i__main__
DBEntry
p0
(dp1
S'player_cards'
p2
(lp3
S'4'
p4
aS'8'
p5
asS'classification'
p6
(S'hit'
p7
F-0.25477
tp8
sS'dealer_card'
p9
S'2'
p10
sb.(i__main__
DBEntry
p0
(dp1
S'player_cards'
p2
(lp3
S'4'
p4
aS'8'
p5
asS'classification'
p6
(S'hit'
p7
F-0.23797
tp8
sS'dealer_card'
p9
S'3'
p10
sb.(i__main__
DBEntry
p0
(dp1
S'player_cards'
p2
(lp3
S'4'
p4
aS'8'
p5
asS'classification'
p6
(S'stand'
p7
F-0.2096
tp8
sS'dealer_card'
p9
g4
sb.(i__main__
DBEntry
p0
(dp1
S'player_cards'
p2
(lp3
S'4'
p4
aS'8'
p5
asS'classification'
p6
(S'stand'
p7
F-0.16642
tp8
sS'dealer_card'
p9
S'5'
p10
sb.(i__main__
DBEntry
p0
(dp1
S'player_cards'
p2
(lp3
S'4'
p4
aS'8'
p5
asS'classification'
p6
(S'stand'
p7
F-0.14996
tp8
sS'dealer_card'
p9
S'6'
p10
sb.(i__main__
DBEntry
p0
(dp1
S'player_cards'
p2
(lp3
S'4'
p4
aS'8'
p5
asS'classification'
p6
(S'hit'
p7
F-0.25377
tp8
sS'dealer_card'
p9
S'7'
p10
sb.(i__main__
DBEntry
p0
(dp1
S'player_cards'
p2
(lp3
S'4'
p4
aS'8'
p5
asS'classification'
p6
(S'hit'
p7
F-0.30523
tp8
sS'dealer_card'
p9
g5
sb.(i__main__
DBEntry
p0
(dp1
S'player_cards'
p2
(lp3
S'4'
p4
aS'8'
p5
asS'classification'
p6
(S'hit'
p7
F-0.37612
tp8
sS'dealer_card'
p9
S'9'
p10
sb.(i__main__
DBEntry
p0
(dp1
S'player_cards'
p2
(lp3
S'4'
p4
aS'8'
p5
asS'classification'
p6
(S'hit'
p7
F-0.43892
tp8
sS'dealer_card'
p9
S'10'
p10
sb.(i__main__
DBEntry
p0
(dp1
S'player_cards'
p2
(lp3
S'4'
p4
aS'8'
p5
asS'classification'
p6
(S'hit'
p7
F-0.57189
tp8
sS'dealer_card'
p9
S'A'
p10
sb.(i__main__
DBEntry
p0
(dp1
S'player_cards'
p2
(lp3
S'4'
p4
aS'9'
p5
asS'classification'
p6
(S'stand'
p7
F-0.29258
tp8
sS'dealer_card'
p9
S'2'
p10
sb.(i__main__
DBEntry
p0
(dp1
S'player_cards'
p2
(lp3
S'4'
p4
aS'9'
p5
asS'classification'
p6
(S'stand'
p7
F-0.25136
tp8
sS'dealer_card'
p9
S'3'
p10
sb.(i__main__
DBEntry
p0
(dp1
S'player_cards'
p2
(lp3
S'4'
p4
aS'9'
p5
asS'classification'
p6
(S'stand'
p7
F-0.21286
tp8
sS'dealer_card'
p9
g4
sb.(i__main__
DBEntry
p0
(dp1
S'player_cards'
p2
(lp3
S'4'
p4
aS'9'
p5
asS'classification'
p6
(S'stand'
p7
F-0.16458
tp8
sS'dealer_card'
p9
S'5'
p10
sb.(i__main__
DBEntry
p0
(dp1
S'player_cards'
p2
(lp3
S'4'
p4
aS'9'
p5
asS'classification'
p6
(S'stand'
p7
F-0.15376
tp8
sS'dealer_card'
p9
S'6'
p10
sb.(i__main__
DBEntry
p0
(dp1
S'player_cards'
p2
(lp3
S'4'
p4
aS'9'
p5
asS'classification'
p6
(S'hit'
p7
F-0.28697
tp8
sS'dealer_card'
p9
S'7'
p10
sb.(i__main__
DBEntry
p0
(dp1
S'player_cards'
p2
(lp3
S'4'
p4
aS'9'
p5
asS'classification'
p6
(S'hit'
p7
F-0.346
tp8
sS'dealer_card'
p9
S'8'
p10
sb.(i__main__
DBEntry
p0
(dp1
S'player_cards'
p2
(lp3
S'4'
p4
aS'9'
p5
asS'classification'
p6
(S'hit'
p7
F-0.4059
tp8
sS'dealer_card'
p9
g5
sb.(i__main__
DBEntry
p0
(dp1
S'player_cards'
p2
(lp3
S'4'
p4
aS'9'
p5
asS'classification'
p6
(S'hit'
p7
F-0.47139
tp8
sS'dealer_card'
p9
S'10'
p10
sb.(i__main__
DBEntry
p0
(dp1
S'player_cards'
p2
(lp3
S'4'
p4
aS'9'
p5
asS'classification'
p6
(S'hit'
p7
F-0.58498
tp8
sS'dealer_card'
p9
S'A'
p10
sb.(i__main__
DBEntry
p0
(dp1
S'player_cards'
p2
(lp3
S'4'
p4
aS'10'
p5
asS'classification'
p6
(S'stand'
p7
F-0.29082
tp8
sS'dealer_card'
p9
S'2'
p10
sb.(i__main__
DBEntry
p0
(dp1
S'player_cards'
p2
(lp3
S'4'
p4
aS'10'
p5
asS'classification'
p6
(S'stand'
p7
F-0.25564
tp8
sS'dealer_card'
p9
S'3'
p10
sb.(i__main__
DBEntry
p0
(dp1
S'player_cards'
p2
(lp3
S'4'
p4
aS'10'
p5
asS'classification'
p6
(S'stand'
p7
F-0.21256
tp8
sS'dealer_card'
p9
g4
sb.(i__main__
DBEntry
p0
(dp1
S'player_cards'
p2
(lp3
S'4'
p4
aS'10'
p5
asS'classification'
p6
(S'stand'
p7
F-0.17506
tp8
sS'dealer_card'
p9
S'5'
p10
sb.(i__main__
DBEntry
p0
(dp1
S'player_cards'
p2
(lp3
S'4'
p4
aS'10'
p5
asS'classification'
p6
(S'stand'
p7
F-0.15614
tp8
sS'dealer_card'
p9
S'6'
p10
sb.(i__main__
DBEntry
p0
(dp1
S'player_cards'
p2
(lp3
S'4'
p4
aS'10'
p5
asS'classification'
p6
(S'hit'
p7
F-0.33721
tp8
sS'dealer_card'
p9
S'7'
p10
sb.(i__main__
DBEntry
p0
(dp1
S'player_cards'
p2
(lp3
S'4'
p4
aS'10'
p5
asS'classification'
p6
(S'hit'
p7
F-0.38215
tp8
sS'dealer_card'
p9
S'8'
p10
sb.(i__main__
DBEntry
p0
(dp1
S'player_cards'
p2
(lp3
S'4'
p4
aS'10'
p5
asS'classification'
p6
(S'hit'
p7
F-0.43867
tp8
sS'dealer_card'
p9
S'9'
p10
sb.(i__main__
DBEntry
p0
(dp1
S'player_cards'
p2
(lp3
S'4'
p4
aS'10'
p5
asS'classification'
p6
(S'hit'
p7
F-0.50617
tp8
sS'dealer_card'
p9
g5
sb.(i__main__
DBEntry
p0
(dp1
S'player_cards'
p2
(lp3
S'4'
p4
aS'10'
p5
asS'classification'
p6
(S'hit'
p7
F-0.6061
tp8
sS'dealer_card'
p9
S'A'
p10
sb.(i__main__
DBEntry
p0
(dp1
S'player_cards'
p2
(lp3
S'4'
p4
aS'A'
p5
asS'classification'
p6
(S'hit'
p7
F-0.03492
tp8
sS'dealer_card'
p9
S'2'
p10
sb.(i__main__
DBEntry
p0
(dp1
S'player_cards'
p2
(lp3
S'4'
p4
aS'A'
p5
asS'classification'
p6
(S'double_down'
p7
F-0.00366
tp8
sS'dealer_card'
p9
S'3'
p10
sb.(i__main__
DBEntry
p0
(dp1
S'player_cards'
p2
(lp3
S'4'
p4
aS'A'
p5
asS'classification'
p6
(S'double_down'
p7
F0.05798
tp8
sS'dealer_card'
p9
g4
sb.(i__main__
DBEntry
p0
(dp1
S'player_cards'
p2
(lp3
S'4'
p4
aS'A'
p5
asS'classification'
p6
(S'double_down'
p7
F0.13178
tp8
sS'dealer_card'
p9
S'5'
p10
sb.(i__main__
DBEntry
p0
(dp1
S'player_cards'
p2
(lp3
S'4'
p4
aS'A'
p5
asS'classification'
p6
(S'double_down'
p7
F0.18282
tp8
sS'dealer_card'
p9
S'6'
p10
sb.(i__main__
DBEntry
p0
(dp1
S'player_cards'
p2
(lp3
S'4'
p4
aS'A'
p5
asS'classification'
p6
(S'hit'
p7
F-0.08667
tp8
sS'dealer_card'
p9
S'7'
p10
sb.(i__main__
DBEntry
p0
(dp1
S'player_cards'
p2
(lp3
S'4'
p4
aS'A'
p5
asS'classification'
p6
(S'hit'
p7
F-0.15591
tp8
sS'dealer_card'
p9
S'8'
p10
sb.(i__main__
DBEntry
p0
(dp1
S'player_cards'
p2
(lp3
S'4'
p4
aS'A'
p5
asS'classification'
p6
(S'hit'
p7
F-0.22975
tp8
sS'dealer_card'
p9
S'9'
p10
sb.(i__main__
DBEntry
p0
(dp1
S'player_cards'
p2
(lp3
S'4'
p4
aS'A'
p5
asS'classification'
p6
(S'hit'
p7
F-0.30636
tp8
sS'dealer_card'
p9
S'10'
p10
sb.(i__main__
DBEntry
p0
(dp1
S'player_cards'
p2
(lp3
S'4'
p4
aS'A'
p5
asS'classification'
p6
(S'hit'
p7
F-0.50111
tp8
sS'dealer_card'
p9
g5
sb.(i__main__
DBEntry
p0
(dp1
S'player_cards'
p2
(lp3
S'5'
p4
ag4
asS'classification'
p5
(S'double_down'
p6
F0.35748
tp7
sS'dealer_card'
p8
S'2'
p9
sb.(i__main__
DBEntry
p0
(dp1
S'player_cards'
p2
(lp3
S'5'
p4
ag4
asS'classification'
p5
(S'double_down'
p6
F0.40618
tp7
sS'dealer_card'
p8
S'3'
p9
sb.(i__main__
DBEntry
p0
(dp1
S'player_cards'
p2
(lp3
S'5'
p4
ag4
asS'classification'
p5
(S'double_down'
p6
F0.4639
tp7
sS'dealer_card'
p8
S'4'
p9
sb.(i__main__
DBEntry
p0
(dp1
S'player_cards'
p2
(lp3
S'5'
p4
ag4
asS'classification'
p5
(S'double_down'
p6
F0.51788
tp7
sS'dealer_card'
p8
g4
sb.(i__main__
DBEntry
p0
(dp1
S'player_cards'
p2
(lp3
S'5'
p4
ag4
asS'classification'
p5
(S'double_down'
p6
F0.5864
tp7
sS'dealer_card'
p8
S'6'
p9
sb.