(i__main__
DBEntry
p0
(dp1
S'player_cards'
p2
(lp3
S'2'
p4
ag4
asS'classification'
p5
(S'split'
p6
g6
tp7
sS'dealer_card'
p8
g4
sb.(i__main__
DBEntry
p0
(dp1
S'player_cards'
p2
(lp3
S'2'
p4
ag4
asS'classification'
p5
(S'split'
p6
g6
tp7
sS'dealer_card'
p8
S'3'
p9
sb.(i__main__
DBEntry
p0
(dp1
S'player_cards'
p2
(lp3
S'2'
p4
ag4
asS'classification'
p5
(S'split'
p6
g6
tp7
sS'dealer_card'
p8
S'4'
p9
sb.(i__main__
DBEntry
p0
(dp1
S'player_cards'
p2
(lp3
S'2'
p4
ag4
asS'classification'
p5
(S'split'
p6
g6
tp7
sS'dealer_card'
p8
S'5'
p9
sb.(i__main__
DBEntry
p0
(dp1
S'player_cards'
p2
(lp3
S'2'
p4
ag4
asS'classification'
p5
(S'split'
p6
g6
tp7
sS'dealer_card'
p8
S'6'
p9
sb.(i__main__
DBEntry
p0
(dp1
S'player_cards'
p2
(lp3
S'2'
p4
ag4
asS'classification'
p5
(S'split'
p6
g6
tp7
sS'dealer_card'
p8
S'7'
p9
sb.(i__main__
DBEntry
p0
(dp1
S'player_cards'
p2
(lp3
S'2'
p4
ag4
asS'classification'
p5
(S'hit'
p6
g6
tp7
sS'dealer_card'
p8
S'8'
p9
sb.(i__main__
DBEntry
p0
(dp1
S'player_cards'
p2
(lp3
S'2'
p4
ag4
asS'classification'
p5
(S'hit'
p6
g6
tp7
sS'dealer_card'
p8
S'9'
p9
sb.(i__main__
DBEntry
p0
(dp1
S'player_cards'
p2
(lp3
S'2'
p4
ag4
asS'classification'
p5
(S'hit'
p6
g6
tp7
sS'dealer_card'
p8
S'10'
p9
sb.(i__main__
DBEntry
p0
(dp1
S'player_cards'
p2
(lp3
S'2'
p4
ag4
asS'classification'
p5
(S'hit'
p6
g6
tp7
sS'dealer_card'
p8
S'A'
p9
sb.(i__main__
DBEntry
p0
(dp1
S'player_cards'
p2
(lp3
S'2'
p4
aS'3'
p5
asS'classification'
p6
(S'hit'
p7
g7
tp8
sS'dealer_card'
p9
g4
sb.(i__main__
DBEntry
p0
(dp1
S'player_cards'
p2
(lp3
S'2'
p4
aS'3'
p5
asS'classification'
p6
(S'hit'
p7
g7
tp8
sS'dealer_card'
p9
g5
sb.(i__main__
DBEntry
p0
(dp1
S'player_cards'
p2
(lp3
S'2'
p4
aS'3'
p5
asS'classification'
p6
(S'hit'
p7
g7
tp8
sS'dealer_card'
p9
S'4'
p10
sb.(i__main__
DBEntry
p0
(dp1
S'player_cards'
p2
(lp3
S'2'
p4
aS'3'
p5
asS'classification'
p6
(S'hit'
p7
g7
tp8
sS'dealer_card'
p9
S'5'
p10
sb.(i__main__
DBEntry
p0
(dp1
S'player_cards'
p2
(lp3
S'2'
p4
aS'3'
p5
asS'classification'
p6
(S'hit'
p7
g7
tp8
sS'dealer_card'
p9
S'6'
p10
sb.(i__main__
DBEntry
p0
(dp1
S'player_cards'
p2
(lp3
S'2'
p4
aS'3'
p5
asS'classification'
p6
(S'hit'
p7
g7
tp8
sS'dealer_card'
p9
S'7'
p10
sb.(i__main__
DBEntry
p0
(dp1
S'player_cards'
p2
(lp3
S'2'
p4
aS'3'
p5
asS'classification'
p6
(S'hit'
p7
g7
tp8
sS'dealer_card'
p9
S'8'
p10
sb.(i__main__
DBEntry
p0
(dp1
S'player_cards'
p2
(lp3
S'2'
p4
aS'3'
p5
asS'classification'
p6
(S'hit'
p7
g7
tp8
sS'dealer_card'
p9
S'9'
p10
sb.(i__main__
DBEntry
p0
(dp1
S'player_cards'
p2
(lp3
S'2'
p4
aS'3'
p5
asS'classification'
p6
(S'hit'
p7
g7
tp8
sS'dealer_card'
p9
S'10'
p10
sb.(i__main__
DBEntry
p0
(dp1
S'player_cards'
p2
(lp3
S'2'
p4
aS'3'
p5
asS'classification'
p6
(S'hit'
p7
g7
tp8
sS'dealer_card'
p9
S'A'
p10
sb.(i__main__
DBEntry
p0
(dp1
S'player_cards'
p2
(lp3
S'2'
p4
aS'4'
p5
asS'classification'
p6
(S'hit'
p7
g7
tp8
sS'dealer_card'
p9
g4
sb.(i__main__
DBEntry
p0
(dp1
S'player_cards'
p2
(lp3
S'2'
p4
aS'4'
p5
asS'classification'
p6
(S'hit'
p7
g7
tp8
sS'dealer_card'
p9
S'3'
p10
sb.(i__main__
DBEntry
p0
(dp1
S'player_cards'
p2
(lp3
S'2'
p4
aS'4'
p5
asS'classification'
p6
(S'hit'
p7
g7
tp8
sS'dealer_card'
p9
g5
sb.(i__main__
DBEntry
p0
(dp1
S'player_cards'
p2
(lp3
S'2'
p4
aS'4'
p5
asS'classification'
p6
(S'hit'
p7
g7
tp8
sS'dealer_card'
p9
S'5'
p10
sb.(i__main__
DBEntry
p0
(dp1
S'player_cards'
p2
(lp3
S'2'
p4
aS'4'
p5
asS'classification'
p6
(S'hit'
p7
g7
tp8
sS'dealer_card'
p9
S'6'
p10
sb.(i__main__
DBEntry
p0
(dp1
S'player_cards'
p2
(lp3
S'2'
p4
aS'4'
p5
asS'classification'
p6
(S'hit'
p7
g7
tp8
sS'dealer_card'
p9
S'7'
p10
sb.(i__main__
DBEntry
p0
(dp1
S'player_cards'
p2
(lp3
S'2'
p4
aS'4'
p5
asS'classification'
p6
(S'hit'
p7
g7
tp8
sS'dealer_card'
p9
S'8'
p10
sb.(i__main__
DBEntry
p0
(dp1
S'player_cards'
p2
(lp3
S'2'
p4
aS'4'
p5
asS'classification'
p6
(S'hit'
p7
g7
tp8
sS'dealer_card'
p9
S'9'
p10
sb.(i__main__
DBEntry
p0
(dp1
S'player_cards'
p2
(lp3
S'2'
p4
aS'4'
p5
asS'classification'
p6
(S'hit'
p7
g7
tp8
sS'dealer_card'
p9
S'10'
p10
sb.(i__main__
DBEntry
p0
(dp1
S'player_cards'
p2
(lp3
S'2'
p4
aS'4'
p5
asS'classification'
p6
(S'hit'
p7
g7
tp8
sS'dealer_card'
p9
S'A'
p10
sb.(i__main__
DBEntry
p0
(dp1
S'player_cards'
p2
(lp3
S'2'
p4
aS'5'
p5
asS'classification'
p6
(S'hit'
p7
g7
tp8
sS'dealer_card'
p9
g4
sb.(i__main__
DBEntry
p0
(dp1
S'player_cards'
p2
(lp3
S'2'
p4
aS'5'
p5
asS'classification'
p6
(S'hit'
p7
g7
tp8
sS'dealer_card'
p9
S'3'
p10
sb.(i__main__
DBEntry
p0
(dp1
S'player_cards'
p2
(lp3
S'2'
p4
aS'5'
p5
asS'classification'
p6
(S'hit'
p7
g7
tp8
sS'dealer_card'
p9
S'4'
p10
sb.(i__main__
DBEntry
p0
(dp1
S'player_cards'
p2
(lp3
S'2'
p4
aS'5'
p5
asS'classification'
p6
(S'hit'
p7
g7
tp8
sS'dealer_card'
p9
g5
sb.(i__main__
DBEntry
p0
(dp1
S'player_cards'
p2
(lp3
S'2'
p4
aS'5'
p5
asS'classification'
p6
(S'hit'
p7
g7
tp8
sS'dealer_card'
p9
S'6'
p10
sb.(i__main__
DBEntry
p0
(dp1
S'player_cards'
p2
(lp3
S'2'
p4
aS'5'
p5
asS'classification'
p6
(S'hit'
p7
g7
tp8
sS'dealer_card'
p9
S'7'
p10
sb.(i__main__
DBEntry
p0
(dp1
S'player_cards'
p2
(lp3
S'2'
p4
aS'5'
p5
asS'classification'
p6
(S'hit'
p7
g7
tp8
sS'dealer_card'
p9
S'8'
p10
sb.(i__main__
DBEntry
p0
(dp1
S'player_cards'
p2
(lp3
S'2'
p4
aS'5'
p5
asS'classification'
p6
(S'hit'
p7
g7
tp8
sS'dealer_card'
p9
S'9'
p10
sb.(i__main__
DBEntry
p0
(dp1
S'player_cards'
p2
(lp3
S'2'
p4
aS'5'
p5
asS'classification'
p6
(S'hit'
p7
g7
tp8
sS'dealer_card'
p9
S'10'
p10
sb.(i__main__
DBEntry
p0
(dp1
S'player_cards'
p2
(lp3
S'2'
p4
aS'5'
p5
asS'classification'
p6
(S'hit'
p7
g7
tp8
sS'dealer_card'
p9
S'A'
p10
sb.(i__main__
DBEntry
p0
(dp1
S'player_cards'
p2
(lp3
S'2'
p4
aS'6'
p5
asS'classification'
p6
(S'hit'
p7
g7
tp8
sS'dealer_card'
p9
g4
sb.(i__main__
DBEntry
p0
(dp1
S'player_cards'
p2
(lp3
S'2'
p4
aS'6'
p5
asS'classification'
p6
(S'hit'
p7
g7
tp8
sS'dealer_card'
p9
S'3'
p10
sb.(i__main__
DBEntry
p0
(dp1
S'player_cards'
p2
(lp3
S'2'
p4
aS'6'
p5
asS'classification'
p6
(S'hit'
p7
g7
tp8
sS'dealer_card'
p9
S'4'
p10
sb.(i__main__
DBEntry
p0
(dp1
S'player_cards'
p2
(lp3
S'2'
p4
aS'6'
p5
asS'classification'
p6
(S'hit'
p7
g7
tp8
sS'dealer_card'
p9
S'5'
p10
sb.(i__main__
DBEntry
p0
(dp1
S'player_cards'
p2
(lp3
S'2'
p4
aS'6'
p5
asS'classification'
p6
(S'hit'
p7
g7
tp8
sS'dealer_card'
p9
g5
sb.(i__main__
DBEntry
p0
(dp1
S'player_cards'
p2
(lp3
S'2'
p4
aS'6'
p5
asS'classification'
p6
(S'hit'
p7
g7
tp8
sS'dealer_card'
p9
S'7'
p10
sb.(i__main__
DBEntry
p0
(dp1
S'player_cards'
p2
(lp3
S'2'
p4
aS'6'
p5
asS'classification'
p6
(S'hit'
p7
g7
tp8
sS'dealer_card'
p9
S'8'
p10
sb.(i__main__
DBEntry
p0
(dp1
S'player_cards'
p2
(lp3
S'2'
p4
aS'6'
p5
asS'classification'
p6
(S'hit'
p7
g7
tp8
sS'dealer_card'
p9
S'9'
p10
sb.(i__main__
DBEntry
p0
(dp1
S'player_cards'
p2
(lp3
S'2'
p4
aS'6'
p5
asS'classification'
p6
(S'hit'
p7
g7
tp8
sS'dealer_card'
p9
S'10'
p10
sb.(i__main__
DBEntry
p0
(dp1
S'player_cards'
p2
(lp3
S'2'
p4
aS'6'
p5
asS'classification'
p6
(S'hit'
p7
g7
tp8
sS'dealer_card'
p9
S'A'
p10
sb.(i__main__
DBEntry
p0
(dp1
S'player_cards'
p2
(lp3
S'2'
p4
aS'7'
p5
asS'classification'
p6
(S'hit'
p7
g7
tp8
sS'dealer_card'
p9
g4
sb.(i__main__
DBEntry
p0
(dp1
S'player_cards'
p2
(lp3
S'2'
p4
aS'7'
p5
asS'classification'
p6
(S'double_down'
p7
g7
tp8
sS'dealer_card'
p9
S'3'
p10
sb.(i__main__
DBEntry
p0
(dp1
S'player_cards'
p2
(lp3
S'2'
p4
aS'7'
p5
asS'classification'
p6
(S'double_down'
p7
g7
tp8
sS'dealer_card'
p9
S'4'
p10
sb.(i__main__
DBEntry
p0
(dp1
S'player_cards'
p2
(lp3
S'2'
p4
aS'7'
p5
asS'classification'
p6
(S'double_down'
p7
g7
tp8
sS'dealer_card'
p9
S'5'
p10
sb.(i__main__
DBEntry
p0
(dp1
S'player_cards'
p2
(lp3
S'2'
p4
aS'7'
p5
asS'classification'
p6
(S'double_down'
p7
g7
tp8
sS'dealer_card'
p9
S'6'
p10
sb.(i__main__
DBEntry
p0
(dp1
S'player_cards'
p2
(lp3
S'2'
p4
aS'7'
p5
asS'classification'
p6
(S'hit'
p7
g7
tp8
sS'dealer_card'
p9
g5
sb.(i__main__
DBEntry
p0
(dp1
S'player_cards'
p2
(lp3
S'2'
p4
aS'7'
p5
asS'classification'
p6
(S'hit'
p7
g7
tp8
sS'dealer_card'
p9
S'8'
p10
sb.(i__main__
DBEntry
p0
(dp1
S'player_cards'
p2
(lp3
S'2'
p4
aS'7'
p5
asS'classification'
p6
(S'hit'
p7
g7
tp8
sS'dealer_card'
p9
S'9'
p10
sb.(i__main__
DBEntry
p0
(dp1
S'player_cards'
p2
(lp3
S'2'
p4
aS'7'
p5
asS'classification'
p6
(S'hit'
p7
g7
tp8
sS'dealer_card'
p9
S'10'
p10
sb.(i__main__
DBEntry
p0
(dp1
S'player_cards'
p2
(lp3
S'2'
p4
aS'7'
p5
asS'classification'
p6
(S'hit'
p7
g7
tp8
sS'dealer_card'
p9
S'A'
p10
sb.(i__main__
DBEntry
p0
(dp1
S'player_cards'
p2
(lp3
S'2'
p4
aS'8'
p5
asS'classification'
p6
(S'double_down'
p7
g7
tp8
sS'dealer_card'
p9
g4
sb.(i__main__
DBEntry
p0
(dp1
S'player_cards'
p2
(lp3
S'2'
p4
aS'8'
p5
asS'classification'
p6
(S'double_down'
p7
g7
tp8
sS'dealer_card'
p9
S'3'
p10
sb.(i__main__
DBEntry
p0
(dp1
S'player_cards'
p2
(lp3
S'2'
p4
aS'8'
p5
asS'classification'
p6
(S'double_down'
p7
g7
tp8
sS'dealer_card'
p9
S'4'
p10
sb.(i__main__
DBEntry
p0
(dp1
S'player_cards'
p2
(lp3
S'2'
p4
aS'8'
p5
asS'classification'
p6
(S'double_down'
p7
g7
tp8
sS'dealer_card'
p9
S'5'
p10
sb.(i__main__
DBEntry
p0
(dp1
S'player_cards'
p2
(lp3
S'2'
p4
aS'8'
p5
asS'classification'
p6
(S'double_down'
p7
g7
tp8
sS'dealer_card'
p9
S'6'
p10
sb.(i__main__
DBEntry
p0
(dp1
S'player_cards'
p2
(lp3
S'2'
p4
aS'8'
p5
asS'classification'
p6
(S'double_down'
p7
g7
tp8
sS'dealer_card'
p9
S'7'
p10
sb.(i__main__
DBEntry
p0
(dp1
S'player_cards'
p2
(lp3
S'2'
p4
aS'8'
p5
asS'classification'
p6
(S'double_down'
p7
g7
tp8
sS'dealer_card'
p9
g5
sb.(i__main__
DBEntry
p0
(dp1
S'player_cards'
p2
(lp3
S'2'
p4
aS'8'
p5
asS'classification'
p6
(S'double_down'
p7
g7
tp8
sS'dealer_card'
p9
S'9'
p10
sb.(i__main__
DBEntry
p0
(dp1
S'player_cards'
p2
(lp3
S'2'
p4
aS'8'
p5
asS'classification'
p6
(S'hit'
p7
g7
tp8
sS'dealer_card'
p9
S'10'
p10
sb.(i__main__
DBEntry
p0
(dp1
S'player_cards'
p2
(lp3
S'2'
p4
aS'8'
p5
asS'classification'
p6
(S'hit'
p7
g7
tp8
sS'dealer_card'
p9
S'A'
p10
sb.(i__main__
DBEntry
p0
(dp1
S'player_cards'
p2
(lp3
S'2'
p4
aS'9'
p5
asS'classification'
p6
(S'double_down'
p7
g7
tp8
sS'dealer_card'
p9
g4
sb.(i__main__
DBEntry
p0
(dp1
S'player_cards'
p2
(lp3
S'2'
p4
aS'9'
p5
asS'classification'
p6
(S'double_down'
p7
g7
tp8
sS'dealer_card'
p9
S'3'
p10
sb.(i__main__
DBEntry
p0
(dp1
S'player_cards'
p2
(lp3
S'2'
p4
aS'9'
p5
asS'classification'
p6
(S'double_down'
p7
g7
tp8
sS'dealer_card'
p9
S'4'
p10
sb.(i__main__
DBEntry
p0
(dp1
S'player_cards'
p2
(lp3
S'2'
p4
aS'9'
p5
asS'classification'
p6
(S'double_down'
p7
g7
tp8
sS'dealer_card'
p9
S'5'
p10
sb.(i__main__
DBEntry
p0
(dp1
S'player_cards'
p2
(lp3
S'2'
p4
aS'9'
p5
asS'classification'
p6
(S'double_down'
p7
g7
tp8
sS'dealer_card'
p9
S'6'
p10
sb.(i__main__
DBEntry
p0
(dp1
S'player_cards'
p2
(lp3
S'2'
p4
aS'9'
p5
asS'classification'
p6
(S'double_down'
p7
g7
tp8
sS'dealer_card'
p9
S'7'
p10
sb.(i__main__
DBEntry
p0
(dp1
S'player_cards'
p2
(lp3
S'2'
p4
aS'9'
p5
asS'classification'
p6
(S'double_down'
p7
g7
tp8
sS'dealer_card'
p9
S'8'
p10
sb.(i__main__
DBEntry
p0
(dp1
S'player_cards'
p2
(lp3
S'2'
p4
aS'9'
p5
asS'classification'
p6
(S'double_down'
p7
g7
tp8
sS'dealer_card'
p9
g5
sb.(i__main__
DBEntry
p0
(dp1
S'player_cards'
p2
(lp3
S'2'
p4
aS'9'
p5
asS'classification'
p6
(S'double_down'
p7
g7
tp8
sS'dealer_card'
p9
S'10'
p10
sb.(i__main__
DBEntry
p0
(dp1
S'player_cards'
p2
(lp3
S'2'
p4
aS'9'
p5
asS'classification'
p6
(S'hit'
p7
g7
tp8
sS'dealer_card'
p9
S'A'
p10
sb.(i__main__
DBEntry
p0
(dp1
S'player_cards'
p2
(lp3
S'2'
p4
aS'10'
p5
asS'classification'
p6
(S'hit'
p7
g7
tp8
sS'dealer_card'
p9
g4
sb.(i__main__
DBEntry
p0
(dp1
S'player_cards'
p2
(lp3
S'2'
p4
aS'10'
p5
asS'classification'
p6
(S'hit'
p7
g7
tp8
sS'dealer_card'
p9
S'3'
p10
sb.(i__main__
DBEntry
p0
(dp1
S'player_cards'
p2
(lp3
S'2'
p4
aS'10'
p5
asS'classification'
p6
(S'stand'
p7
g7
tp8
sS'dealer_card'
p9
S'4'
p10
sb.(i__main__
DBEntry
p0
(dp1
S'player_cards'
p2
(lp3
S'2'
p4
aS'10'
p5
asS'classification'
p6
(S'stand'
p7
g7
tp8
sS'dealer_card'
p9
S'5'
p10
sb.(i__main__
DBEntry
p0
(dp1
S'player_cards'
p2
(lp3
S'2'
p4
aS'10'
p5
asS'classification'
p6
(S'stand'
p7
g7
tp8
sS'dealer_card'
p9
S'6'
p10
sb.(i__main__
DBEntry
p0
(dp1
S'player_cards'
p2
(lp3
S'2'
p4
aS'10'
p5
asS'classification'
p6
(S'hit'
p7
g7
tp8
sS'dealer_card'
p9
S'7'
p10
sb.(i__main__
DBEntry
p0
(dp1
S'player_cards'
p2
(lp3
S'2'
p4
aS'10'
p5
asS'classification'
p6
(S'hit'
p7
g7
tp8
sS'dealer_card'
p9
S'8'
p10
sb.(i__main__
DBEntry
p0
(dp1
S'player_cards'
p2
(lp3
S'2'
p4
aS'10'
p5
asS'classification'
p6
(S'hit'
p7
g7
tp8
sS'dealer_card'
p9
S'9'
p10
sb.(i__main__
DBEntry
p0
(dp1
S'player_cards'
p2
(lp3
S'2'
p4
aS'10'
p5
asS'classification'
p6
(S'hit'
p7
g7
tp8
sS'dealer_card'
p9
g5
sb.(i__main__
DBEntry
p0
(dp1
S'player_cards'
p2
(lp3
S'2'
p4
aS'10'
p5
asS'classification'
p6
(S'hit'
p7
g7
tp8
sS'dealer_card'
p9
S'A'
p10
sb.(i__main__
DBEntry
p0
(dp1
S'player_cards'
p2
(lp3
S'2'
p4
aS'A'
p5
asS'classification'
p6
(S'hit'
p7
g7
tp8
sS'dealer_card'
p9
g4
sb.(i__main__
DBEntry
p0
(dp1
S'player_cards'
p2
(lp3
S'2'
p4
aS'A'
p5
asS'classification'
p6
(S'hit'
p7
g7
tp8
sS'dealer_card'
p9
S'3'
p10
sb.(i__main__
DBEntry
p0
(dp1
S'player_cards'
p2
(lp3
S'2'
p4
aS'A'
p5
asS'classification'
p6
(S'hit'
p7
g7
tp8
sS'dealer_card'
p9
S'4'
p10
sb.(i__main__
DBEntry
p0
(dp1
S'player_cards'
p2
(lp3
S'2'
p4
aS'A'
p5
asS'classification'
p6
(S'double_down'
p7
g7
tp8
sS'dealer_card'
p9
S'5'
p10
sb.(i__main__
DBEntry
p0
(dp1
S'player_cards'
p2
(lp3
S'2'
p4
aS'A'
p5
asS'classification'
p6
(S'double_down'
p7
g7
tp8
sS'dealer_card'
p9
S'6'
p10
sb.(i__main__
DBEntry
p0
(dp1
S'player_cards'
p2
(lp3
S'2'
p4
aS'A'
p5
asS'classification'
p6
(S'hit'
p7
g7
tp8
sS'dealer_card'
p9
S'7'
p10
sb.(i__main__
DBEntry
p0
(dp1
S'player_cards'
p2
(lp3
S'2'
p4
aS'A'
p5
asS'classification'
p6
(S'hit'
p7
g7
tp8
sS'dealer_card'
p9
S'8'
p10
sb.(i__main__
DBEntry
p0
(dp1
S'player_cards'
p2
(lp3
S'2'
p4
aS'A'
p5
asS'classification'
p6
(S'hit'
p7
g7
tp8
sS'dealer_card'
p9
S'9'
p10
sb.(i__main__
DBEntry
p0
(dp1
S'player_cards'
p2
(lp3
S'2'
p4
aS'A'
p5
asS'classification'
p6
(S'hit'
p7
g7
tp8
sS'dealer_card'
p9
S'10'
p10
sb.(i__main__
DBEntry
p0
(dp1
S'player_cards'
p2
(lp3
S'2'
p4
aS'A'
p5
asS'classification'
p6
(S'hit'
p7
g7
tp8
sS'dealer_card'
p9
g5
sb.(i__main__
DBEntry
p0
(dp1
S'player_cards'
p2
(lp3
S'3'
p4
ag4
asS'classification'
p5
(S'split'
p6
g6
tp7
sS'dealer_card'
p8
S'2'
p9
sb.(i__main__
DBEntry
p0
(dp1
S'player_cards'
p2
(lp3
S'3'
p4
ag4
asS'classification'
p5
(S'split'
p6
g6
tp7
sS'dealer_card'
p8
g4
sb.(i__main__
DBEntry
p0
(dp1
S'player_cards'
p2
(lp3
S'3'
p4
ag4
asS'classification'
p5
(S'split'
p6
g6
tp7
sS'dealer_card'
p8
S'4'
p9
sb.(i__main__
DBEntry
p0
(dp1
S'player_cards'
p2
(lp3
S'3'
p4
ag4
asS'classification'
p5
(S'split'
p6
g6
tp7
sS'dealer_card'
p8
S'5'
p9
sb.(i__main__
DBEntry
p0
(dp1
S'player_cards'
p2
(lp3
S'3'
p4
ag4
asS'classification'
p5
(S'split'
p6
g6
tp7
sS'dealer_card'
p8
S'6'
p9
sb.(i__main__
DBEntry
p0
(dp1
S'player_cards'
p2
(lp3
S'3'
p4
ag4
asS'classification'
p5
(S'split'
p6
g6
tp7
sS'dealer_card'
p8
S'7'
p9
sb.(i__main__
DBEntry
p0
(dp1
S'player_cards'
p2
(lp3
S'3'
p4
ag4
asS'classification'
p5
(S'hit'
p6
g6
tp7
sS'dealer_card'
p8
S'8'
p9
sb.(i__main__
DBEntry
p0
(dp1
S'player_cards'
p2
(lp3
S'3'
p4
ag4
asS'classification'
p5
(S'hit'
p6
g6
tp7
sS'dealer_card'
p8
S'9'
p9
sb.(i__main__
DBEntry
p0
(dp1
S'player_cards'
p2
(lp3
S'3'
p4
ag4
asS'classification'
p5
(S'hit'
p6
g6
tp7
sS'dealer_card'
p8
S'10'
p9
sb.(i__main__
DBEntry
p0
(dp1
S'player_cards'
p2
(lp3
S'3'
p4
ag4
asS'classification'
p5
(S'hit'
p6
g6
tp7
sS'dealer_card'
p8
S'A'
p9
sb.(i__main__
DBEntry
p0
(dp1
S'player_cards'
p2
(lp3
S'3'
p4
aS'4'
p5
asS'classification'
p6
(S'hit'
p7
g7
tp8
sS'dealer_card'
p9
S'2'
p10
sb.(i__main__
DBEntry
p0
(dp1
S'player_cards'
p2
(lp3
S'3'
p4
aS'4'
p5
asS'classification'
p6
(S'hit'
p7
g7
tp8
sS'dealer_card'
p9
g4
sb.(i__main__
DBEntry
p0
(dp1
S'player_cards'
p2
(lp3
S'3'
p4
aS'4'
p5
asS'classification'
p6
(S'hit'
p7
g7
tp8
sS'dealer_card'
p9
g5
sb.(i__main__
DBEntry
p0
(dp1
S'player_cards'
p2
(lp3
S'3'
p4
aS'4'
p5
asS'classification'
p6
(S'hit'
p7
g7
tp8
sS'dealer_card'
p9
S'5'
p10
sb.(i__main__
DBEntry
p0
(dp1
S'player_cards'
p2
(lp3
S'3'
p4
aS'4'
p5
asS'classification'
p6
(S'hit'
p7
g7
tp8
sS'dealer_card'
p9
S'6'
p10
sb.(i__main__
DBEntry
p0
(dp1
S'player_cards'
p2
(lp3
S'3'
p4
aS'4'
p5
asS'classification'
p6
(S'hit'
p7
g7
tp8
sS'dealer_card'
p9
S'7'
p10
sb.(i__main__
DBEntry
p0
(dp1
S'player_cards'
p2
(lp3
S'3'
p4
aS'4'
p5
asS'classification'
p6
(S'hit'
p7
g7
tp8
sS'dealer_card'
p9
S'8'
p10
sb.(i__main__
DBEntry
p0
(dp1
S'player_cards'
p2
(lp3
S'3'
p4
aS'4'
p5
asS'classification'
p6
(S'hit'
p7
g7
tp8
sS'dealer_card'
p9
S'9'
p10
sb.(i__main__
DBEntry
p0
(dp1
S'player_cards'
p2
(lp3
S'3'
p4
aS'4'
p5
asS'classification'
p6
(S'hit'
p7
g7
tp8
sS'dealer_card'
p9
S'10'
p10
sb.(i__main__
DBEntry
p0
(dp1
S'player_cards'
p2
(lp3
S'3'
p4
aS'4'
p5
asS'classification'
p6
(S'hit'
p7
g7
tp8
sS'dealer_card'
p9
S'A'
p10
sb.(i__main__
DBEntry
p0
(dp1
S'player_cards'
p2
(lp3
S'3'
p4
aS'5'
p5
asS'classification'
p6
(S'hit'
p7
g7
tp8
sS'dealer_card'
p9
S'2'
p10
sb.(i__main__
DBEntry
p0
(dp1
S'player_cards'
p2
(lp3
S'3'
p4
aS'5'
p5
asS'classification'
p6
(S'hit'
p7
g7
tp8
sS'dealer_card'
p9
g4
sb.(i__main__
DBEntry
p0
(dp1
S'player_cards'
p2
(lp3
S'3'
p4
aS'5'
p5
asS'classification'
p6
(S'hit'
p7
g7
tp8
sS'dealer_card'
p9
S'4'
p10
sb.(i__main__
DBEntry
p0
(dp1
S'player_cards'
p2
(lp3
S'3'
p4
aS'5'
p5
asS'classification'
p6
(S'hit'
p7
g7
tp8
sS'dealer_card'
p9
g5
sb.(i__main__
DBEntry
p0
(dp1
S'player_cards'
p2
(lp3
S'3'
p4
aS'5'
p5
asS'classification'
p6
(S'hit'
p7
g7
tp8
sS'dealer_card'
p9
S'6'
p10
sb.(i__main__
DBEntry
p0
(dp1
S'player_cards'
p2
(lp3
S'3'
p4
aS'5'
p5
asS'classification'
p6
(S'hit'
p7
g7
tp8
sS'dealer_card'
p9
S'7'
p10
sb.(i__main__
DBEntry
p0
(dp1
S'player_cards'
p2
(lp3
S'3'
p4
aS'5'
p5
asS'classification'
p6
(S'hit'
p7
g7
tp8
sS'dealer_card'
p9
S'8'
p10
sb.(i__main__
DBEntry
p0
(dp1
S'player_cards'
p2
(lp3
S'3'
p4
aS'5'
p5
asS'classification'
p6
(S'hit'
p7
g7
tp8
sS'dealer_card'
p9
S'9'
p10
sb.(i__main__
DBEntry
p0
(dp1
S'player_cards'
p2
(lp3
S'3'
p4
aS'5'
p5
asS'classification'
p6
(S'hit'
p7
g7
tp8
sS'dealer_card'
p9
S'10'
p10
sb.(i__main__
DBEntry
p0
(dp1
S'player_cards'
p2
(lp3
S'3'
p4
aS'5'
p5
asS'classification'
p6
(S'hit'
p7
g7
tp8
sS'dealer_card'
p9
S'A'
p10
sb.(i__main__
DBEntry
p0
(dp1
S'player_cards'
p2
(lp3
S'3'
p4
aS'6'
p5
asS'classification'
p6
(S'hit'
p7
g7
tp8
sS'dealer_card'
p9
S'2'
p10
sb.(i__main__
DBEntry
p0
(dp1
S'player_cards'
p2
(lp3
S'3'
p4
aS'6'
p5
asS'classification'
p6
(S'double_down'
p7
g7
tp8
sS'dealer_card'
p9
g4
sb.(i__main__
DBEntry
p0
(dp1
S'player_cards'
p2
(lp3
S'3'
p4
aS'6'
p5
asS'classification'
p6
(S'double_down'
p7
g7
tp8
sS'dealer_card'
p9
S'4'
p10
sb.(i__main__
DBEntry
p0
(dp1
S'player_cards'
p2
(lp3
S'3'
p4
aS'6'
p5
asS'classification'
p6
(S'double_down'
p7
g7
tp8
sS'dealer_card'
p9
S'5'
p10
sb.(i__main__
DBEntry
p0
(dp1
S'player_cards'
p2
(lp3
S'3'
p4
aS'6'
p5
asS'classification'
p6
(S'double_down'
p7
g7
tp8
sS'dealer_card'
p9
g5
sb.(i__main__
DBEntry
p0
(dp1
S'player_cards'
p2
(lp3
S'3'
p4
aS'6'
p5
asS'classification'
p6
(S'hit'
p7
g7
tp8
sS'dealer_card'
p9
S'7'
p10
sb.(i__main__
DBEntry
p0
(dp1
S'player_cards'
p2
(lp3
S'3'
p4
aS'6'
p5
asS'classification'
p6
(S'hit'
p7
g7
tp8
sS'dealer_card'
p9
S'8'
p10
sb.(i__main__
DBEntry
p0
(dp1
S'player_cards'
p2
(lp3
S'3'
p4
aS'6'
p5
asS'classification'
p6
(S'hit'
p7
g7
tp8
sS'dealer_card'
p9
S'9'
p10
sb.(i__main__
DBEntry
p0
(dp1
S'player_cards'
p2
(lp3
S'3'
p4
aS'6'
p5
asS'classification'
p6
(S'hit'
p7
g7
tp8
sS'dealer_card'
p9
S'10'
p10
sb.(i__main__
DBEntry
p0
(dp1
S'player_cards'
p2
(lp3
S'3'
p4
aS'6'
p5
asS'classification'
p6
(S'hit'
p7
g7
tp8
sS'dealer_card'
p9
S'A'
p10
sb.(i__main__
DBEntry
p0
(dp1
S'player_cards'
p2
(lp3
S'3'
p4
aS'7'
p5
asS'classification'
p6
(S'double_down'
p7
g7
tp8
sS'dealer_card'
p9
S'2'
p10
sb.(i__main__
DBEntry
p0
(dp1
S'player_cards'
p2
(lp3
S'3'
p4
aS'7'
p5
asS'classification'
p6
(S'double_down'
p7
g7
tp8
sS'dealer_card'
p9
g4
sb.(i__main__
DBEntry
p0
(dp1
S'player_cards'
p2
(lp3
S'3'
p4
aS'7'
p5
asS'classification'
p6
(S'double_down'
p7
g7
tp8
sS'dealer_card'
p9
S'4'
p10
sb.(i__main__
DBEntry
p0
(dp1
S'player_cards'
p2
(lp3
S'3'
p4
aS'7'
p5
asS'classification'
p6
(S'double_down'
p7
g7
tp8
sS'dealer_card'
p9
S'5'
p10
sb.(i__main__
DBEntry
p0
(dp1
S'player_cards'
p2
(lp3
S'3'
p4
aS'7'
p5
asS'classification'
p6
(S'double_down'
p7
g7
tp8
sS'dealer_card'
p9
S'6'
p10
sb.(i__main__
DBEntry
p0
(dp1
S'player_cards'
p2
(lp3
S'3'
p4
aS'7'
p5
asS'classification'
p6
(S'double_down'
p7
g7
tp8
sS'dealer_card'
p9
g5
sb.(i__main__
DBEntry
p0
(dp1
S'player_cards'
p2
(lp3
S'3'
p4
aS'7'
p5
asS'classification'
p6
(S'double_down'
p7
g7
tp8
sS'dealer_card'
p9
S'8'
p10
sb.(i__main__
DBEntry
p0
(dp1
S'player_cards'
p2
(lp3
S'3'
p4
aS'7'
p5
asS'classification'
p6
(S'double_down'
p7
g7
tp8
sS'dealer_card'
p9
S'9'
p10
sb.(i__main__
DBEntry
p0
(dp1
S'player_cards'
p2
(lp3
S'3'
p4
aS'7'
p5
asS'classification'
p6
(S'hit'
p7
g7
tp8
sS'dealer_card'
p9
S'10'
p10
sb.(i__main__
DBEntry
p0
(dp1
S'player_cards'
p2
(lp3
S'3'
p4
aS'7'
p5
asS'classification'
p6
(S'hit'
p7
g7
tp8
sS'dealer_card'
p9
S'A'
p10
sb.(i__main__
DBEntry
p0
(dp1
S'player_cards'
p2
(lp3
S'3'
p4
aS'8'
p5
asS'classification'
p6
(S'double_down'
p7
g7
tp8
sS'dealer_card'
p9
S'2'
p10
sb.(i__main__
DBEntry
p0
(dp1
S'player_cards'
p2
(lp3
S'3'
p4
aS'8'
p5
asS'classification'
p6
(S'double_down'
p7
g7
tp8
sS'dealer_card'
p9
g4
sb.(i__main__
DBEntry
p0
(dp1
S'player_cards'
p2
(lp3
S'3'
p4
aS'8'
p5
asS'classification'
p6
(S'double_down'
p7
g7
tp8
sS'dealer_card'
p9
S'4'
p10
sb.(i__main__
DBEntry
p0
(dp1
S'player_cards'
p2
(lp3
S'3'
p4
aS'8'
p5
asS'classification'
p6
(S'double_down'
p7
g7
tp8
sS'dealer_card'
p9
S'5'
p10
sb.(i__main__
DBEntry
p0
(dp1
S'player_cards'
p2
(lp3
S'3'
p4
aS'8'
p5
asS'classification'
p6
(S'double_down'
p7
g7
tp8
sS'dealer_card'
p9
S'6'
p10
sb.(i__main__
DBEntry
p0
(dp1
S'player_cards'
p2
(lp3
S'3'
p4
aS'8'
p5
asS'classification'
p6
(S'double_down'
p7
g7
tp8
sS'dealer_card'
p9
S'7'
p10
sb.(i__main__
DBEntry
p0
(dp1
S'player_cards'
p2
(lp3
S'3'
p4
aS'8'
p5
asS'classification'
p6
(S'double_down'
p7
g7
tp8
sS'dealer_card'
p9
g5
sb.(i__main__
DBEntry
p0
(dp1
S'player_cards'
p2
(lp3
S'3'
p4
aS'8'
p5
asS'classification'
p6
(S'double_down'
p7
g7
tp8
sS'dealer_card'
p9
S'9'
p10
sb.(i__main__
DBEntry
p0
(dp1
S'player_cards'
p2
(lp3
S'3'
p4
aS'8'
p5
asS'classification'
p6
(S'double_down'
p7
g7
tp8
sS'dealer_card'
p9
S'10'
p10
sb.(i__main__
DBEntry
p0
(dp1
S'player_cards'
p2
(lp3
S'3'
p4
aS'8'
p5
asS'classification'
p6
(S'hit'
p7
g7
tp8
sS'dealer_card'
p9
S'A'
p10
sb.(i__main__
DBEntry
p0
(dp1
S'player_cards'
p2
(lp3
S'3'
p4
aS'9'
p5
asS'classification'
p6
(S'hit'
p7
g7
tp8
sS'dealer_card'
p9
S'2'
p10
sb.(i__main__
DBEntry
p0
(dp1
S'player_cards'
p2
(lp3
S'3'
p4
aS'9'
p5
asS'classification'
p6
(S'hit'
p7
g7
tp8
sS'dealer_card'
p9
g4
sb.(i__main__
DBEntry
p0
(dp1
S'player_cards'
p2
(lp3
S'3'
p4
aS'9'
p5
asS'classification'
p6
(S'stand'
p7
g7
tp8
sS'dealer_card'
p9
S'4'
p10
sb.(i__main__
DBEntry
p0
(dp1
S'player_cards'
p2
(lp3
S'3'
p4
aS'9'
p5
asS'classification'
p6
(S'stand'
p7
g7
tp8
sS'dealer_card'
p9
S'5'
p10
sb.(i__main__
DBEntry
p0
(dp1
S'player_cards'
p2
(lp3
S'3'
p4
aS'9'
p5
asS'classification'
p6
(S'stand'
p7
g7
tp8
sS'dealer_card'
p9
S'6'
p10
sb.(i__main__
DBEntry
p0
(dp1
S'player_cards'
p2
(lp3
S'3'
p4
aS'9'
p5
asS'classification'
p6
(S'hit'
p7
g7
tp8
sS'dealer_card'
p9
S'7'
p10
sb.(i__main__
DBEntry
p0
(dp1
S'player_cards'
p2
(lp3
S'3'
p4
aS'9'
p5
asS'classification'
p6
(S'hit'
p7
g7
tp8
sS'dealer_card'
p9
S'8'
p10
sb.(i__main__
DBEntry
p0
(dp1
S'player_cards'
p2
(lp3
S'3'
p4
aS'9'
p5
asS'classification'
p6
(S'hit'
p7
g7
tp8
sS'dealer_card'
p9
g5
sb.(i__main__
DBEntry
p0
(dp1
S'player_cards'
p2
(lp3
S'3'
p4
aS'9'
p5
asS'classification'
p6
(S'hit'
p7
g7
tp8
sS'dealer_card'
p9
S'10'
p10
sb.(i__main__
DBEntry
p0
(dp1
S'player_cards'
p2
(lp3
S'3'
p4
aS'9'
p5
asS'classification'
p6
(S'hit'
p7
g7
tp8
sS'dealer_card'
p9
S'A'
p10
sb.(i__main__
DBEntry
p0
(dp1
S'player_cards'
p2
(lp3
S'3'
p4
aS'10'
p5
asS'classification'
p6
(S'stand'
p7
g7
tp8
sS'dealer_card'
p9
S'2'
p10
sb.(i__main__
DBEntry
p0
(dp1
S'player_cards'
p2
(lp3
S'3'
p4
aS'10'
p5
asS'classification'
p6
(S'stand'
p7
g7
tp8
sS'dealer_card'
p9
g4
sb.(i__main__
DBEntry
p0
(dp1
S'player_cards'
p2
(lp3
S'3'
p4
aS'10'
p5
asS'classification'
p6
(S'stand'
p7
g7
tp8
sS'dealer_card'
p9
S'4'
p10
sb.(i__main__
DBEntry
p0
(dp1
S'player_cards'
p2
(lp3
S'3'
p4
aS'10'
p5
asS'classification'
p6
(S'stand'
p7
g7
tp8
sS'dealer_card'
p9
S'5'
p10
sb.(i__main__
DBEntry
p0
(dp1
S'player_cards'
p2
(lp3
S'3'
p4
aS'10'
p5
asS'classification'
p6
(S'stand'
p7
g7
tp8
sS'dealer_card'
p9
S'6'
p10
sb.(i__main__
DBEntry
p0
(dp1
S'player_cards'
p2
(lp3
S'3'
p4
aS'10'
p5
asS'classification'
p6
(S'hit'
p7
g7
tp8
sS'dealer_card'
p9
S'7'
p10
sb.(i__main__
DBEntry
p0
(dp1
S'player_cards'
p2
(lp3
S'3'
p4
aS'10'
p5
asS'classification'
p6
(S'hit'
p7
g7
tp8
sS'dealer_card'
p9
S'8'
p10
sb.(i__main__
DBEntry
p0
(dp1
S'player_cards'
p2
(lp3
S'3'
p4
aS'10'
p5
asS'classification'
p6
(S'hit'
p7
g7
tp8
sS'dealer_card'
p9
S'9'
p10
sb.(i__main__
DBEntry
p0
(dp1
S'player_cards'
p2
(lp3
S'3'
p4
aS'10'
p5
asS'classification'
p6
(S'hit'
p7
g7
tp8
sS'dealer_card'
p9
g5
sb.(i__main__
DBEntry
p0
(dp1
S'player_cards'
p2
(lp3
S'3'
p4
aS'10'
p5
asS'classification'
p6
(S'hit'
p7
g7
tp8
sS'dealer_card'
p9
S'A'
p10
sb.(i__main__
DBEntry
p0
(dp1
S'player_cards'
p2
(lp3
S'3'
p4
aS'A'
p5
asS'classification'
p6
(S'hit'
p7
g7
tp8
sS'dealer_card'
p9
S'2'
p10
sb.(i__main__
DBEntry
p0
(dp1
S'player_cards'
p2
(lp3
S'3'
p4
aS'A'
p5
asS'classification'
p6
(S'hit'
p7
g7
tp8
sS'dealer_card'
p9
g4
sb.(i__main__
DBEntry
p0
(dp1
S'player_cards'
p2
(lp3
S'3'
p4
aS'A'
p5
asS'classification'
p6
(S'hit'
p7
g7
tp8
sS'dealer_card'
p9
S'4'
p10
sb.(i__main__
DBEntry
p0
(dp1
S'player_cards'
p2
(lp3
S'3'
p4
aS'A'
p5
asS'classification'
p6
(S'double_down'
p7
g7
tp8
sS'dealer_card'
p9
S'5'
p10
sb.(i__main__
DBEntry
p0
(dp1
S'player_cards'
p2
(lp3
S'3'
p4
aS'A'
p5
asS'classification'
p6
(S'double_down'
p7
g7
tp8
sS'dealer_card'
p9
S'6'
p10
sb.(i__main__
DBEntry
p0
(dp1
S'player_cards'
p2
(lp3
S'3'
p4
aS'A'
p5
asS'classification'
p6
(S'hit'
p7
g7
tp8
sS'dealer_card'
p9
S'7'
p10
sb.(i__main__
DBEntry
p0
(dp1
S'player_cards'
p2
(lp3
S'3'
p4
aS'A'
p5
asS'classification'
p6
(S'hit'
p7
g7
tp8
sS'dealer_card'
p9
S'8'
p10
sb.(i__main__
DBEntry
p0
(dp1
S'player_cards'
p2
(lp3
S'3'
p4
aS'A'
p5
asS'classification'
p6
(S'hit'
p7
g7
tp8
sS'dealer_card'
p9
S'9'
p10
sb.(i__main__
DBEntry
p0
(dp1
S'player_cards'
p2
(lp3
S'3'
p4
aS'A'
p5
asS'classification'
p6
(S'hit'
p7
g7
tp8
sS'dealer_card'
p9
S'10'
p10
sb.(i__main__
DBEntry
p0
(dp1
S'player_cards'
p2
(lp3
S'3'
p4
aS'A'
p5
asS'classification'
p6
(S'hit'
p7
g7
tp8
sS'dealer_card'
p9
g5
sb.(i__main__
DBEntry
p0
(dp1
S'player_cards'
p2
(lp3
S'4'
p4
ag4
asS'classification'
p5
(S'hit'
p6
g6
tp7
sS'dealer_card'
p8
S'2'
p9
sb.(i__main__
DBEntry
p0
(dp1
S'player_cards'
p2
(lp3
S'4'
p4
ag4
asS'classification'
p5
(S'hit'
p6
g6
tp7
sS'dealer_card'
p8
S'3'
p9
sb.(i__main__
DBEntry
p0
(dp1
S'player_cards'
p2
(lp3
S'4'
p4
ag4
asS'classification'
p5
(S'hit'
p6
g6
tp7
sS'dealer_card'
p8
g4
sb.(i__main__
DBEntry
p0
(dp1
S'player_cards'
p2
(lp3
S'4'
p4
ag4
asS'classification'
p5
(S'split'
p6
g6
tp7
sS'dealer_card'
p8
S'5'
p9
sb.(i__main__
DBEntry
p0
(dp1
S'player_cards'
p2
(lp3
S'4'
p4
ag4
asS'classification'
p5
(S'split'
p6
g6
tp7
sS'dealer_card'
p8
S'6'
p9
sb.(i__main__
DBEntry
p0
(dp1
S'player_cards'
p2
(lp3
S'4'
p4
ag4
asS'classification'
p5
(S'hit'
p6
g6
tp7
sS'dealer_card'
p8
S'7'
p9
sb.(i__main__
DBEntry
p0
(dp1
S'player_cards'
p2
(lp3
S'4'
p4
ag4
asS'classification'
p5
(S'hit'
p6
g6
tp7
sS'dealer_card'
p8
S'8'
p9
sb.(i__main__
DBEntry
p0
(dp1
S'player_cards'
p2
(lp3
S'4'
p4
ag4
asS'classification'
p5
(S'hit'
p6
g6
tp7
sS'dealer_card'
p8
S'9'
p9
sb.(i__main__
DBEntry
p0
(dp1
S'player_cards'
p2
(lp3
S'4'
p4
ag4
asS'classification'
p5
(S'hit'
p6
g6
tp7
sS'dealer_card'
p8
S'10'
p9
sb.(i__main__
DBEntry
p0
(dp1
S'player_cards'
p2
(lp3
S'4'
p4
ag4
asS'classification'
p5
(S'hit'
p6
g6
tp7
sS'dealer_card'
p8
S'A'
p9
sb.(i__main__
DBEntry
p0
(dp1
S'player_cards'
p2
(lp3
S'4'
p4
aS'5'
p5
asS'classification'
p6
(S'hit'
p7
g7
tp8
sS'dealer_card'
p9
S'2'
p10
sb.(i__main__
DBEntry
p0
(dp1
S'player_cards'
p2
(lp3
S'4'
p4
aS'5'
p5
asS'classification'
p6
(S'double_down'
p7
g7
tp8
sS'dealer_card'
p9
S'3'
p10
sb.(i__main__
DBEntry
p0
(dp1
S'player_cards'
p2
(lp3
S'4'
p4
aS'5'
p5
asS'classification'
p6
(S'double_down'
p7
g7
tp8
sS'dealer_card'
p9
g4
sb.(i__main__
DBEntry
p0
(dp1
S'player_cards'
p2
(lp3
S'4'
p4
aS'5'
p5
asS'classification'
p6
(S'double_down'
p7
g7
tp8
sS'dealer_card'
p9
g5
sb.(i__main__
DBEntry
p0
(dp1
S'player_cards'
p2
(lp3
S'4'
p4
aS'5'
p5
asS'classification'
p6
(S'double_down'
p7
g7
tp8
sS'dealer_card'
p9
S'6'
p10
sb.(i__main__
DBEntry
p0
(dp1
S'player_cards'
p2
(lp3
S'4'
p4
aS'5'
p5
asS'classification'
p6
(S'hit'
p7
g7
tp8
sS'dealer_card'
p9
S'7'
p10
sb.(i__main__
DBEntry
p0
(dp1
S'player_cards'
p2
(lp3
S'4'
p4
aS'5'
p5
asS'classification'
p6
(S'hit'
p7
g7
tp8
sS'dealer_card'
p9
S'8'
p10
sb.(i__main__
DBEntry
p0
(dp1
S'player_cards'
p2
(lp3
S'4'
p4
aS'5'
p5
asS'classification'
p6
(S'hit'
p7
g7
tp8
sS'dealer_card'
p9
S'9'
p10
sb.(i__main__
DBEntry
p0
(dp1
S'player_cards'
p2
(lp3
S'4'
p4
aS'5'
p5
asS'classification'
p6
(S'hit'
p7
g7
tp8
sS'dealer_card'
p9
S'10'
p10
sb.(i__main__
DBEntry
p0
(dp1
S'player_cards'
p2
(lp3
S'4'
p4
aS'5'
p5
asS'classification'
p6
(S'hit'
p7
g7
tp8
sS'dealer_card'
p9
S'A'
p10
sb.(i__main__
DBEntry
p0
(dp1
S'player_cards'
p2
(lp3
S'4'
p4
aS'6'
p5
asS'classification'
p6
(S'double_down'
p7
g7
tp8
sS'dealer_card'
p9
S'2'
p10
sb.(i__main__
DBEntry
p0
(dp1
S'player_cards'
p2
(lp3
S'4'
p4
aS'6'
p5
asS'classification'
p6
(S'double_down'
p7
g7
tp8
sS'dealer_card'
p9
S'3'
p10
sb.(i__main__
DBEntry
p0
(dp1
S'player_cards'
p2
(lp3
S'4'
p4
aS'6'
p5
asS'classification'
p6
(S'double_down'
p7
g7
tp8
sS'dealer_card'
p9
g4
sb.(i__main__
DBEntry
p0
(dp1
S'player_cards'
p2
(lp3
S'4'
p4
aS'6'
p5
asS'classification'
p6
(S'double_down'
p7
g7
tp8
sS'dealer_card'
p9
S'5'
p10
sb.(i__main__
DBEntry
p0
(dp1
S'player_cards'
p2
(lp3
S'4'
p4
aS'6'
p5
asS'classification'
p6
(S'double_down'
p7
g7
tp8
sS'dealer_card'
p9
g5
sb.(i__main__
DBEntry
p0
(dp1
S'player_cards'
p2
(lp3
S'4'
p4
aS'6'
p5
asS'classification'
p6
(S'double_down'
p7
g7
tp8
sS'dealer_card'
p9
S'7'
p10
sb.(i__main__
DBEntry
p0
(dp1
S'player_cards'
p2
(lp3
S'4'
p4
aS'6'
p5
asS'classification'
p6
(S'double_down'
p7
g7
tp8
sS'dealer_card'
p9
S'8'
p10
sb.(i__main__
DBEntry
p0
(dp1
S'player_cards'
p2
(lp3
S'4'
p4
aS'6'
p5
asS'classification'
p6
(S'double_down'
p7
g7
tp8
sS'dealer_card'
p9
S'9'
p10
sb.(i__main__
DBEntry
p0
(dp1
S'player_cards'
p2
(lp3
S'4'
p4
aS'6'
p5
asS'classification'
p6
(S'hit'
p7
g7
tp8
sS'dealer_card'
p9
S'10'
p10
sb.(i__main__
DBEntry
p0
(dp1
S'player_cards'
p2
(lp3
S'4'
p4
aS'6'
p5
asS'classification'
p6
(S'hit'
p7
g7
tp8
sS'dealer_card'
p9
S'A'
p10
sb.(i__main__
DBEntry
p0
(dp1
S'player_cards'
p2
(lp3
S'4'
p4
aS'7'
p5
asS'classification'
p6
(S'double_down'
p7
g7
tp8
sS'dealer_card'
p9
S'2'
p10
sb.(i__main__
DBEntry
p0
(dp1
S'player_cards'
p2
(lp3
S'4'
p4
aS'7'
p5
asS'classification'
p6
(S'double_down'
p7
g7
tp8
sS'dealer_card'
p9
S'3'
p10
sb.(i__main__
DBEntry
p0
(dp1
S'player_cards'
p2
(lp3
S'4'
p4
aS'7'
p5
asS'classification'
p6
(S'double_down'
p7
g7
tp8
sS'dealer_card'
p9
g4
sb.(i__main__
DBEntry
p0
(dp1
S'player_cards'
p2
(lp3
S'4'
p4
aS'7'
p5
asS'classification'
p6
(S'double_down'
p7
g7
tp8
sS'dealer_card'
p9
S'5'
p10
sb.(i__main__
DBEntry
p0
(dp1
S'player_cards'
p2
(lp3
S'4'
p4
aS'7'
p5
asS'classification'
p6
(S'double_down'
p7
g7
tp8
sS'dealer_card'
p9
S'6'
p10
sb.(i__main__
DBEntry
p0
(dp1
S'player_cards'
p2
(lp3
S'4'
p4
aS'7'
p5
asS'classification'
p6
(S'double_down'
p7
g7
tp8
sS'dealer_card'
p9
g5
sb.(i__main__
DBEntry
p0
(dp1
S'player_cards'
p2
(lp3
S'4'
p4
aS'7'
p5
asS'classification'
p6
(S'double_down'
p7
g7
tp8
sS'dealer_card'
p9
S'8'
p10
sb.(i__main__
DBEntry
p0
(dp1
S'player_cards'
p2
(lp3
S'4'
p4
aS'7'
p5
asS'classification'
p6
(S'double_down'
p7
g7
tp8
sS'dealer_card'
p9
S'9'
p10
sb.(i__main__
DBEntry
p0
(dp1
S'player_cards'
p2
(lp3
S'4'
p4
aS'7'
p5
asS'classification'
p6
(S'double_down'
p7
g7
tp8
sS'dealer_card'
p9
S'10'
p10
sb.(i__main__
DBEntry
p0
(dp1
S'player_cards'
p2
(lp3
S'4'
p4
aS'7'
p5
asS'classification'
p6
(S'hit'
p7
g7
tp8
sS'dealer_card'
p9
S'A'
p10
sb.(i__main__
DBEntry
p0
(dp1
S'player_cards'
p2
(lp3
S'4'
p4
aS'8'
p5
asS'classification'
p6
(S'hit'
p7
g7
tp8
sS'dealer_card'
p9
S'2'
p10
sb.(i__main__
DBEntry
p0
(dp1
S'player_cards'
p2
(lp3
S'4'
p4
aS'8'
p5
asS'classification'
p6
(S'hit'
p7
g7
tp8
sS'dealer_card'
p9
S'3'
p10
sb.(i__main__
DBEntry
p0
(dp1
S'player_cards'
p2
(lp3
S'4'
p4
aS'8'
p5
asS'classification'
p6
(S'stand'
p7
g7
tp8
sS'dealer_card'
p9
g4
sb.(i__main__
DBEntry
p0
(dp1
S'player_cards'
p2
(lp3
S'4'
p4
aS'8'
p5
asS'classification'
p6
(S'stand'
p7
g7
tp8
sS'dealer_card'
p9
S'5'
p10
sb.(i__main__
DBEntry
p0
(dp1
S'player_cards'
p2
(lp3
S'4'
p4
aS'8'
p5
asS'classification'
p6
(S'stand'
p7
g7
tp8
sS'dealer_card'
p9
S'6'
p10
sb.(i__main__
DBEntry
p0
(dp1
S'player_cards'
p2
(lp3
S'4'
p4
aS'8'
p5
asS'classification'
p6
(S'hit'
p7
g7
tp8
sS'dealer_card'
p9
S'7'
p10
sb.(i__main__
DBEntry
p0
(dp1
S'player_cards'
p2
(lp3
S'4'
p4
aS'8'
p5
asS'classification'
p6
(S'hit'
p7
g7
tp8
sS'dealer_card'
p9
g5
sb.(i__main__
DBEntry
p0
(dp1
S'player_cards'
p2
(lp3
S'4'
p4
aS'8'
p5
asS'classification'
p6
(S'hit'
p7
g7
tp8
sS'dealer_card'
p9
S'9'
p10
sb.(i__main__
DBEntry
p0
(dp1
S'player_cards'
p2
(lp3
S'4'
p4
aS'8'
p5
asS'classification'
p6
(S'hit'
p7
g7
tp8
sS'dealer_card'
p9
S'10'
p10
sb.(i__main__
DBEntry
p0
(dp1
S'player_cards'
p2
(lp3
S'4'
p4
aS'8'
p5
asS'classification'
p6
(S'hit'
p7
g7
tp8
sS'dealer_card'
p9
S'A'
p10
sb.(i__main__
DBEntry
p0
(dp1
S'player_cards'
p2
(lp3
S'4'
p4
aS'9'
p5
asS'classification'
p6
(S'stand'
p7
g7
tp8
sS'dealer_card'
p9
S'2'
p10
sb.(i__main__
DBEntry
p0
(dp1
S'player_cards'
p2
(lp3
S'4'
p4
aS'9'
p5
asS'classification'
p6
(S'stand'
p7
g7
tp8
sS'dealer_card'
p9
S'3'
p10
sb.(i__main__
DBEntry
p0
(dp1
S'player_cards'
p2
(lp3
S'4'
p4
aS'9'
p5
asS'classification'
p6
(S'stand'
p7
g7
tp8
sS'dealer_card'
p9
g4
sb.(i__main__
DBEntry
p0
(dp1
S'player_cards'
p2
(lp3
S'4'
p4
aS'9'
p5
asS'classification'
p6
(S'stand'
p7
g7
tp8
sS'dealer_card'
p9
S'5'
p10
sb.(i__main__
DBEntry
p0
(dp1
S'player_cards'
p2
(lp3
S'4'
p4
aS'9'
p5
asS'classification'
p6
(S'stand'
p7
g7
tp8
sS'dealer_card'
p9
S'6'
p10
sb.(i__main__
DBEntry
p0
(dp1
S'player_cards'
p2
(lp3
S'4'
p4
aS'9'
p5
asS'classification'
p6
(S'hit'
p7
g7
tp8
sS'dealer_card'
p9
S'7'
p10
sb.(i__main__
DBEntry
p0
(dp1
S'player_cards'
p2
(lp3
S'4'
p4
aS'9'
p5
asS'classification'
p6
(S'hit'
p7
g7
tp8
sS'dealer_card'
p9
S'8'
p10
sb.(i__main__
DBEntry
p0
(dp1
S'player_cards'
p2
(lp3
S'4'
p4
aS'9'
p5
asS'classification'
p6
(S'hit'
p7
g7
tp8
sS'dealer_card'
p9
g5
sb.(i__main__
DBEntry
p0
(dp1
S'player_cards'
p2
(lp3
S'4'
p4
aS'9'
p5
asS'classification'
p6
(S'hit'
p7
g7
tp8
sS'dealer_card'
p9
S'10'
p10
sb.(i__main__
DBEntry
p0
(dp1
S'player_cards'
p2
(lp3
S'4'
p4
aS'9'
p5
asS'classification'
p6
(S'hit'
p7
g7
tp8
sS'dealer_card'
p9
S'A'
p10
sb.(i__main__
DBEntry
p0
(dp1
S'player_cards'
p2
(lp3
S'4'
p4
aS'10'
p5
asS'classification'
p6
(S'stand'
p7
g7
tp8
sS'dealer_card'
p9
S'2'
p10
sb.(i__main__
DBEntry
p0
(dp1
S'player_cards'
p2
(lp3
S'4'
p4
aS'10'
p5
asS'classification'
p6
(S'stand'
p7
g7
tp8
sS'dealer_card'
p9
S'3'
p10
sb.(i__main__
DBEntry
p0
(dp1
S'player_cards'
p2
(lp3
S'4'
p4
aS'10'
p5
asS'classification'
p6
(S'stand'
p7
g7
tp8
sS'dealer_card'
p9
g4
sb.(i__main__
DBEntry
p0
(dp1
S'player_cards'
p2
(lp3
S'4'
p4
aS'10'
p5
asS'classification'
p6
(S'stand'
p7
g7
tp8
sS'dealer_card'
p9
S'5'
p10
sb.(i__main__
DBEntry
p0
(dp1
S'player_cards'
p2
(lp3
S'4'
p4
aS'10'
p5
asS'classification'
p6
(S'stand'
p7
g7
tp8
sS'dealer_card'
p9
S'6'
p10
sb.(i__main__
DBEntry
p0
(dp1
S'player_cards'
p2
(lp3
S'4'
p4
aS'10'
p5
asS'classification'
p6
(S'hit'
p7
g7
tp8
sS'dealer_card'
p9
S'7'
p10
sb.(i__main__
DBEntry
p0
(dp1
S'player_cards'
p2
(lp3
S'4'
p4
aS'10'
p5
asS'classification'
p6
(S'hit'
p7
g7
tp8
sS'dealer_card'
p9
S'8'
p10
sb.(i__main__
DBEntry
p0
(dp1
S'player_cards'
p2
(lp3
S'4'
p4
aS'10'
p5
asS'classification'
p6
(S'hit'
p7
g7
tp8
sS'dealer_card'
p9
S'9'
p10
sb.(i__main__
DBEntry
p0
(dp1
S'player_cards'
p2
(lp3
S'4'
p4
aS'10'
p5
asS'classification'
p6
(S'hit'
p7
g7
tp8
sS'dealer_card'
p9
g5
sb.(i__main__
DBEntry
p0
(dp1
S'player_cards'
p2
(lp3
S'4'
p4
aS'10'
p5
asS'classification'
p6
(S'hit'
p7
g7
tp8
sS'dealer_card'
p9
S'A'
p10
sb.(i__main__
DBEntry
p0
(dp1
S'player_cards'
p2
(lp3
S'4'
p4
aS'A'
p5
asS'classification'
p6
(S'hit'
p7
g7
tp8
sS'dealer_card'
p9
S'2'
p10
sb.(i__main__
DBEntry
p0
(dp1
S'player_cards'
p2
(lp3
S'4'
p4
aS'A'
p5
asS'classification'
p6
(S'hit'
p7
g7
tp8
sS'dealer_card'
p9
S'3'
p10
sb.(i__main__
DBEntry
p0
(dp1
S'player_cards'
p2
(lp3
S'4'
p4
aS'A'
p5
asS'classification'
p6
(S'double_down'
p7
g7
tp8
sS'dealer_card'
p9
g4
sb.(i__main__
DBEntry
p0
(dp1
S'player_cards'
p2
(lp3
S'4'
p4
aS'A'
p5
asS'classification'
p6
(S'double_down'
p7
g7
tp8
sS'dealer_card'
p9
S'5'
p10
sb.(i__main__
DBEntry
p0
(dp1
S'player_cards'
p2
(lp3
S'4'
p4
aS'A'
p5
asS'classification'
p6
(S'double_down'
p7
g7
tp8
sS'dealer_card'
p9
S'6'
p10
sb.(i__main__
DBEntry
p0
(dp1
S'player_cards'
p2
(lp3
S'4'
p4
aS'A'
p5
asS'classification'
p6
(S'hit'
p7
g7
tp8
sS'dealer_card'
p9
S'7'
p10
sb.(i__main__
DBEntry
p0
(dp1
S'player_cards'
p2
(lp3
S'4'
p4
aS'A'
p5
asS'classification'
p6
(S'hit'
p7
g7
tp8
sS'dealer_card'
p9
S'8'
p10
sb.(i__main__
DBEntry
p0
(dp1
S'player_cards'
p2
(lp3
S'4'
p4
aS'A'
p5
asS'classification'
p6
(S'hit'
p7
g7
tp8
sS'dealer_card'
p9
S'9'
p10
sb.(i__main__
DBEntry
p0
(dp1
S'player_cards'
p2
(lp3
S'4'
p4
aS'A'
p5
asS'classification'
p6
(S'hit'
p7
g7
tp8
sS'dealer_card'
p9
S'10'
p10
sb.(i__main__
DBEntry
p0
(dp1
S'player_cards'
p2
(lp3
S'4'
p4
aS'A'
p5
asS'classification'
p6
(S'hit'
p7
g7
tp8
sS'dealer_card'
p9
g5
sb.(i__main__
DBEntry
p0
(dp1
S'player_cards'
p2
(lp3
S'5'
p4
ag4
asS'classification'
p5
(S'double_down'
p6
g6
tp7
sS'dealer_card'
p8
S'2'
p9
sb.(i__main__
DBEntry
p0
(dp1
S'player_cards'
p2
(lp3
S'5'
p4
ag4
asS'classification'
p5
(S'double_down'
p6
g6
tp7
sS'dealer_card'
p8
S'3'
p9
sb.(i__main__
DBEntry
p0
(dp1
S'player_cards'
p2
(lp3
S'5'
p4
ag4
asS'classification'
p5
(S'double_down'
p6
g6
tp7
sS'dealer_card'
p8
S'4'
p9
sb.(i__main__
DBEntry
p0
(dp1
S'player_cards'
p2
(lp3
S'5'
p4
ag4
asS'classification'
p5
(S'double_down'
p6
g6
tp7
sS'dealer_card'
p8
g4
sb.(i__main__
DBEntry
p0
(dp1
S'player_cards'
p2
(lp3
S'5'
p4
ag4
asS'classification'
p5
(S'double_down'
p6
g6
tp7
sS'dealer_card'
p8
S'6'
p9
sb.(i__main__
DBEntry
p0
(dp1
S'player_cards'
p2
(lp3
S'5'
p4
ag4
asS'classification'
p5
(S'double_down'
p6
g6
tp7
sS'dealer_card'
p8
S'7'
p9
sb.(i__main__
DBEntry
p0
(dp1
S'player_cards'
p2
(lp3
S'5'
p4
ag4
asS'classification'
p5
(S'double_down'
p6
g6
tp7
sS'dealer_card'
p8
S'8'
p9
sb.(i__main__
DBEntry
p0
(dp1
S'player_cards'
p2
(lp3
S'5'
p4
ag4
asS'classification'
p5
(S'double_down'
p6
g6
tp7
sS'dealer_card'
p8
S'9'
p9
sb.(i__main__
DBEntry
p0
(dp1
S'player_cards'
p2
(lp3
S'5'
p4
ag4
asS'classification'
p5
(S'hit'
p6
g6
tp7
sS'dealer_card'
p8
S'10'
p9
sb.(i__main__
DBEntry
p0
(dp1
S'player_cards'
p2
(lp3
S'5'
p4
ag4
asS'classification'
p5
(S'hit'
p6
g6
tp7
sS'dealer_card'
p8
S'A'
p9
sb.(i__main__
DBEntry
p0
(dp1
S'player_cards'
p2
(lp3
S'5'
p4
aS'6'
p5
asS'classification'
p6
(S'double_down'
p7
g7
tp8
sS'dealer_card'
p9
S'2'
p10
sb.(i__main__
DBEntry
p0
(dp1
S'player_cards'
p2
(lp3
S'5'
p4
aS'6'
p5
asS'classification'
p6
(S'double_down'
p7
g7
tp8
sS'dealer_card'
p9
S'3'
p10
sb.(i__main__
DBEntry
p0
(dp1
S'player_cards'
p2
(lp3
S'5'
p4
aS'6'
p5
asS'classification'
p6
(S'double_down'
p7
g7
tp8
sS'dealer_card'
p9
S'4'
p10
sb.(i__main__
DBEntry
p0
(dp1
S'player_cards'
p2
(lp3
S'5'
p4
aS'6'
p5
asS'classification'
p6
(S'double_down'
p7
g7
tp8
sS'dealer_card'
p9
g4
sb.(i__main__
DBEntry
p0
(dp1
S'player_cards'
p2
(lp3
S'5'
p4
aS'6'
p5
asS'classification'
p6
(S'double_down'
p7
g7
tp8
sS'dealer_card'
p9
g5
sb.(i__main__
DBEntry
p0
(dp1
S'player_cards'
p2
(lp3
S'5'
p4
aS'6'
p5
asS'classification'
p6
(S'double_down'
p7
g7
tp8
sS'dealer_card'
p9
S'7'
p10
sb.(i__main__
DBEntry
p0
(dp1
S'player_cards'
p2
(lp3
S'5'
p4
aS'6'
p5
asS'classification'
p6
(S'double_down'
p7
g7
tp8
sS'dealer_card'
p9
S'8'
p10
sb.(i__main__
DBEntry
p0
(dp1
S'player_cards'
p2
(lp3
S'5'
p4
aS'6'
p5
asS'classification'
p6
(S'double_down'
p7
g7
tp8
sS'dealer_card'
p9
S'9'
p10
sb.(i__main__
DBEntry
p0
(dp1
S'player_cards'
p2
(lp3
S'5'
p4
aS'6'
p5
asS'classification'
p6
(S'double_down'
p7
g7
tp8
sS'dealer_card'
p9
S'10'
p10
sb.(i__main__
DBEntry
p0
(dp1
S'player_cards'
p2
(lp3
S'5'
p4
aS'6'
p5
asS'classification'
p6
(S'hit'
p7
g7
tp8
sS'dealer_card'
p9
S'A'
p10
sb.(i__main__
DBEntry
p0
(dp1
S'player_cards'
p2
(lp3
S'5'
p4
aS'7'
p5
asS'classification'
p6
(S'hit'
p7
g7
tp8
sS'dealer_card'
p9
S'2'
p10
sb.(i__main__
DBEntry
p0
(dp1
S'player_cards'
p2
(lp3
S'5'
p4
aS'7'
p5
asS'classification'
p6
(S'hit'
p7
g7
tp8
sS'dealer_card'
p9
S'3'
p10
sb.(i__main__
DBEntry
p0
(dp1
S'player_cards'
p2
(lp3
S'5'
p4
aS'7'
p5
asS'classification'
p6
(S'stand'
p7
g7
tp8
sS'dealer_card'
p9
S'4'
p10
sb.(i__main__
DBEntry
p0
(dp1
S'player_cards'
p2
(lp3
S'5'
p4
aS'7'
p5
asS'classification'
p6
(S'stand'
p7
g7
tp8
sS'dealer_card'
p9
g4
sb.(i__main__
DBEntry
p0
(dp1
S'player_cards'
p2
(lp3
S'5'
p4
aS'7'
p5
asS'classification'
p6
(S'stand'
p7
g7
tp8
sS'dealer_card'
p9
S'6'
p10
sb.(i__main__
DBEntry
p0
(dp1
S'player_cards'
p2
(lp3
S'5'
p4
aS'7'
p5
asS'classification'
p6
(S'hit'
p7
g7
tp8
sS'dealer_card'
p9
g5
sb.(i__main__
DBEntry
p0
(dp1
S'player_cards'
p2
(lp3
S'5'
p4
aS'7'
p5
asS'classification'
p6
(S'hit'
p7
g7
tp8
sS'dealer_card'
p9
S'8'
p10
sb.(i__main__
DBEntry
p0
(dp1
S'player_cards'
p2
(lp3
S'5'
p4
aS'7'
p5
asS'classification'
p6
(S'hit'
p7
g7
tp8
sS'dealer_card'
p9
S'9'
p10
sb.(i__main__
DBEntry
p0
(dp1
S'player_cards'
p2
(lp3
S'5'
p4
aS'7'
p5
asS'classification'
p6
(S'hit'
p7
g7
tp8
sS'dealer_card'
p9
S'10'
p10
sb.(i__main__
DBEntry
p0
(dp1
S'player_cards'
p2
(lp3
S'5'
p4
aS'7'
p5
asS'classification'
p6
(S'hit'
p7
g7
tp8
sS'dealer_card'
p9
S'A'
p10
sb.(i__main__
DBEntry
p0
(dp1
S'player_cards'
p2
(lp3
S'5'
p4
aS'8'
p5
asS'classification'
p6
(S'stand'
p7
g7
tp8
sS'dealer_card'
p9
S'2'
p10
sb.(i__main__
DBEntry
p0
(dp1
S'player_cards'
p2
(lp3
S'5'
p4
aS'8'
p5
asS'classification'
p6
(S'stand'
p7
g7
tp8
sS'dealer_card'
p9
S'3'
p10
sb.(i__main__
DBEntry
p0
(dp1
S'player_cards'
p2
(lp3
S'5'
p4
aS'8'
p5
asS'classification'
p6
(S'stand'
p7
g7
tp8
sS'dealer_card'
p9
S'4'
p10
sb.(i__main__
DBEntry
p0
(dp1
S'player_cards'
p2
(lp3
S'5'
p4
aS'8'
p5
asS'classification'
p6
(S'stand'
p7
g7
tp8
sS'dealer_card'
p9
g4
sb.(i__main__
DBEntry
p0
(dp1
S'player_cards'
p2
(lp3
S'5'
p4
aS'8'
p5
asS'classification'
p6
(S'stand'
p7
g7
tp8
sS'dealer_card'
p9
S'6'
p10
sb.(i__main__
DBEntry
p0
(dp1
S'player_cards'
p2
(lp3
S'5'
p4
aS'8'
p5
asS'classification'
p6
(S'hit'
p7
g7
tp8
sS'dealer_card'
p9
S'7'
p10
sb.(i__main__
DBEntry
p0
(dp1
S'player_cards'
p2
(lp3
S'5'
p4
aS'8'
p5
asS'classification'
p6
(S'hit'
p7
g7
tp8
sS'dealer_card'
p9
g5
sb.(i__main__
DBEntry
p0
(dp1
S'player_cards'
p2
(lp3
S'5'
p4
aS'8'
p5
asS'classification'
p6
(S'hit'
p7
g7
tp8
sS'dealer_card'
p9
S'9'
p10
sb.(i__main__
DBEntry
p0
(dp1
S'player_cards'
p2
(lp3
S'5'
p4
aS'8'
p5
asS'classification'
p6
(S'hit'
p7
g7
tp8
sS'dealer_card'
p9
S'10'
p10
sb.(i__main__
DBEntry
p0
(dp1
S'player_cards'
p2
(lp3
S'5'
p4
aS'8'
p5
asS'classification'
p6
(S'hit'
p7
g7
tp8
sS'dealer_card'
p9
S'A'
p10
sb.(i__main__
DBEntry
p0
(dp1
S'player_cards'
p2
(lp3
S'5'
p4
aS'9'
p5
asS'classification'
p6
(S'stand'
p7
g7
tp8
sS'dealer_card'
p9
S'2'
p10
sb.(i__main__
DBEntry
p0
(dp1
S'player_cards'
p2
(lp3
S'5'
p4
aS'9'
p5
asS'classification'
p6
(S'stand'
p7
g7
tp8
sS'dealer_card'
p9
S'3'
p10
sb.(i__main__
DBEntry
p0
(dp1
S'player_cards'
p2
(lp3
S'5'
p4
aS'9'
p5
asS'classification'
p6
(S'stand'
p7
g7
tp8
sS'dealer_card'
p9
S'4'
p10
sb.(i__main__
DBEntry
p0
(dp1
S'player_cards'
p2
(lp3
S'5'
p4
aS'9'
p5
asS'classification'
p6
(S'stand'
p7
g7
tp8
sS'dealer_card'
p9
g4
sb.(i__main__
DBEntry
p0
(dp1
S'player_cards'
p2
(lp3
S'5'
p4
aS'9'
p5
asS'classification'
p6
(S'stand'
p7
g7
tp8
sS'dealer_card'
p9
S'6'
p10
sb.(i__main__
DBEntry
p0
(dp1
S'player_cards'
p2
(lp3
S'5'
p4
aS'9'
p5
asS'classification'
p6
(S'hit'
p7
g7
tp8
sS'dealer_card'
p9
S'7'
p10
sb.(i__main__
DBEntry
p0
(dp1
S'player_cards'
p2
(lp3
S'5'
p4
aS'9'
p5
asS'classification'
p6
(S'hit'
p7
g7
tp8
sS'dealer_card'
p9
S'8'
p10
sb.(i__main__
DBEntry
p0
(dp1
S'player_cards'
p2
(lp3
S'5'
p4
aS'9'
p5
asS'classification'
p6
(S'hit'
p7
g7
tp8
sS'dealer_card'
p9
g5
sb.(i__main__
DBEntry
p0
(dp1
S'player_cards'
p2
(lp3
S'5'
p4
aS'9'
p5
asS'classification'
p6
(S'hit'
p7
g7
tp8
sS'dealer_card'
p9
S'10'
p10
sb.(i__main__
DBEntry
p0
(dp1
S'player_cards'
p2
(lp3
S'5'
p4
aS'9'
p5
asS'classification'
p6
(S'hit'
p7
g7
tp8
sS'dealer_card'
p9
S'A'
p10
sb.(i__main__
DBEntry
p0
(dp1
S'player_cards'
p2
(lp3
S'5'
p4
aS'10'
p5
asS'classification'
p6
(S'stand'
p7
g7
tp8
sS'dealer_card'
p9
S'2'
p10
sb.(i__main__
DBEntry
p0
(dp1
S'player_cards'
p2
(lp3
S'5'
p4
aS'10'
p5
asS'classification'
p6
(S'stand'
p7
g7
tp8
sS'dealer_card'
p9
S'3'
p10
sb.(i__main__
DBEntry
p0
(dp1
S'player_cards'
p2
(lp3
S'5'
p4
aS'10'
p5
asS'classification'
p6
(S'stand'
p7
g7
tp8
sS'dealer_card'
p9
S'4'
p10
sb.(i__main__
DBEntry
p0
(dp1
S'player_cards'
p2
(lp3
S'5'
p4
aS'10'
p5
asS'classification'
p6
(S'stand'
p7
g7
tp8
sS'dealer_card'
p9
g4
sb.(i__main__
DBEntry
p0
(dp1
S'player_cards'
p2
(lp3
S'5'
p4
aS'10'
p5
asS'classification'
p6
(S'stand'
p7
g7
tp8
sS'dealer_card'
p9
S'6'
p10
sb.(i__main__
DBEntry
p0
(dp1
S'player_cards'
p2
(lp3
S'5'
p4
aS'10'
p5
asS'classification'
p6
(S'hit'
p7
g7
tp8
sS'dealer_card'
p9
S'7'
p10
sb.(i__main__
DBEntry
p0
(dp1
S'player_cards'
p2
(lp3
S'5'
p4
aS'10'
p5
asS'classification'
p6
(S'hit'
p7
g7
tp8
sS'dealer_card'
p9
S'8'
p10
sb.(i__main__
DBEntry
p0
(dp1
S'player_cards'
p2
(lp3
S'5'
p4
aS'10'
p5
asS'classification'
p6
(S'hit'
p7
g7
tp8
sS'dealer_card'
p9
S'9'
p10
sb.(i__main__
DBEntry
p0
(dp1
S'player_cards'
p2
(lp3
S'5'
p4
aS'10'
p5
asS'classification'
p6
(S'hit'
p7
g7
tp8
sS'dealer_card'
p9
g5
sb.(i__main__
DBEntry
p0
(dp1
S'player_cards'
p2
(lp3
S'5'
p4
aS'10'
p5
asS'classification'
p6
(S'hit'
p7
g7
tp8
sS'dealer_card'
p9
S'A'
p10
sb.(i__main__
DBEntry
p0
(dp1
S'player_cards'
p2
(lp3
S'5'
p4
aS'A'
p5
asS'classification'
p6
(S'hit'
p7
g7
tp8
sS'dealer_card'
p9
S'2'
p10
sb.(i__main__
DBEntry
p0
(dp1
S'player_cards'
p2
(lp3
S'5'
p4
aS'A'
p5
asS'classification'
p6
(S'hit'
p7
g7
tp8
sS'dealer_card'
p9
S'3'
p10
sb.(i__main__
DBEntry
p0
(dp1
S'player_cards'
p2
(lp3
S'5'
p4
aS'A'
p5
asS'classification'
p6
(S'double_down'
p7
g7
tp8
sS'dealer_card'
p9
S'4'
p10
sb.(i__main__
DBEntry
p0
(dp1
S'player_cards'
p2
(lp3
S'5'
p4
aS'A'
p5
asS'classification'
p6
(S'double_down'
p7
g7
tp8
sS'dealer_card'
p9
g4
sb.(i__main__
DBEntry
p0
(dp1
S'player_cards'
p2
(lp3
S'5'
p4
aS'A'
p5
asS'classification'
p6
(S'double_down'
p7
g7
tp8
sS'dealer_card'
p9
S'6'
p10
sb.(i__main__
DBEntry
p0
(dp1
S'player_cards'
p2
(lp3
S'5'
p4
aS'A'
p5
asS'classification'
p6
(S'hit'
p7
g7
tp8
sS'dealer_card'
p9
S'7'
p10
sb.(i__main__
DBEntry
p0
(dp1
S'player_cards'
p2
(lp3
S'5'
p4
aS'A'
p5
asS'classification'
p6
(S'hit'
p7
g7
tp8
sS'dealer_card'
p9
S'8'
p10
sb.(i__main__
DBEntry
p0
(dp1
S'player_cards'
p2
(lp3
S'5'
p4
aS'A'
p5
asS'classification'
p6
(S'hit'
p7
g7
tp8
sS'dealer_card'
p9
S'9'
p10
sb.(i__main__
DBEntry
p0
(dp1
S'player_cards'
p2
(lp3
S'5'
p4
aS'A'
p5
asS'classification'
p6
(S'hit'
p7
g7
tp8
sS'dealer_card'
p9
S'10'
p10
sb.(i__main__
DBEntry
p0
(dp1
S'player_cards'
p2
(lp3
S'5'
p4
aS'A'
p5
asS'classification'
p6
(S'hit'
p7
g7
tp8
sS'dealer_card'
p9
g5
sb.(i__main__
DBEntry
p0
(dp1
S'player_cards'
p2
(lp3
S'6'
p4
ag4
asS'classification'
p5
(S'split'
p6
g6
tp7
sS'dealer_card'
p8
S'2'
p9
sb.(i__main__
DBEntry
p0
(dp1
S'player_cards'
p2
(lp3
S'6'
p4
ag4
asS'classification'
p5
(S'split'
p6
g6
tp7
sS'dealer_card'
p8
S'3'
p9
sb.(i__main__
DBEntry
p0
(dp1
S'player_cards'
p2
(lp3
S'6'
p4
ag4
asS'classification'
p5
(S'split'
p6
g6
tp7
sS'dealer_card'
p8
S'4'
p9
sb.(i__main__
DBEntry
p0
(dp1
S'player_cards'
p2
(lp3
S'6'
p4
ag4
asS'classification'
p5
(S'split'
p6
g6
tp7
sS'dealer_card'
p8
S'5'
p9
sb.(i__main__
DBEntry
p0
(dp1
S'player_cards'
p2
(lp3
S'6'
p4
ag4
asS'classification'
p5
(S'split'
p6
g6
tp7
sS'dealer_card'
p8
g4
sb.(i__main__
DBEntry
p0
(dp1
S'player_cards'
p2
(lp3
S'6'
p4
ag4
asS'classification'
p5
(S'hit'
p6
g6
tp7
sS'dealer_card'
p8
S'7'
p9
sb.(i__main__
DBEntry
p0
(dp1
S'player_cards'
p2
(lp3
S'6'
p4
ag4
asS'classification'
p5
(S'hit'
p6
g6
tp7
sS'dealer_card'
p8
S'8'
p9
sb.(i__main__
DBEntry
p0
(dp1
S'player_cards'
p2
(lp3
S'6'
p4
ag4
asS'classification'
p5
(S'hit'
p6
g6
tp7
sS'dealer_card'
p8
S'9'
p9
sb.(i__main__
DBEntry
p0
(dp1
S'player_cards'
p2
(lp3
S'6'
p4
ag4
asS'classification'
p5
(S'hit'
p6
g6
tp7
sS'dealer_card'
p8
S'10'
p9
sb.(i__main__
DBEntry
p0
(dp1
S'player_cards'
p2
(lp3
S'6'
p4
ag4
asS'classification'
p5
(S'hit'
p6
g6
tp7
sS'dealer_card'
p8
S'A'
p9
sb.(i__main__
DBEntry
p0
(dp1
S'player_cards'
p2
(lp3
S'6'
p4
aS'7'
p5
asS'classification'
p6
(S'stand'
p7
g7
tp8
sS'dealer_card'
p9
S'2'
p10
sb.(i__main__
DBEntry
p0
(dp1
S'player_cards'
p2
(lp3
S'6'
p4
aS'7'
p5
asS'classification'
p6
(S'stand'
p7
g7
tp8
sS'dealer_card'
p9
S'3'
p10
sb.(i__main__
DBEntry
p0
(dp1
S'player_cards'
p2
(lp3
S'6'
p4
aS'7'
p5
asS'classification'
p6
(S'stand'
p7
g7
tp8
sS'dealer_card'
p9
S'4'
p10
sb.(i__main__
DBEntry
p0
(dp1
S'player_cards'
p2
(lp3
S'6'
p4
aS'7'
p5
asS'classification'
p6
(S'stand'
p7
g7
tp8
sS'dealer_card'
p9
S'5'
p10
sb.(i__main__
DBEntry
p0
(dp1
S'player_cards'
p2
(lp3
S'6'
p4
aS'7'
p5
asS'classification'
p6
(S'stand'
p7
g7
tp8
sS'dealer_card'
p9
g4
sb.(i__main__
DBEntry
p0
(dp1
S'player_cards'
p2
(lp3
S'6'
p4
aS'7'
p5
asS'classification'
p6
(S'hit'
p7
g7
tp8
sS'dealer_card'
p9
g5
sb.(i__main__
DBEntry
p0
(dp1
S'player_cards'
p2
(lp3
S'6'
p4
aS'7'
p5
asS'classification'
p6
(S'hit'
p7
g7
tp8
sS'dealer_card'
p9
S'8'
p10
sb.(i__main__
DBEntry
p0
(dp1
S'player_cards'
p2
(lp3
S'6'
p4
aS'7'
p5
asS'classification'
p6
(S'hit'
p7
g7
tp8
sS'dealer_card'
p9
S'9'
p10
sb.(i__main__
DBEntry
p0
(dp1
S'player_cards'
p2
(lp3
S'6'
p4
aS'7'
p5
asS'classification'
p6
(S'hit'
p7
g7
tp8
sS'dealer_card'
p9
S'10'
p10
sb.(i__main__
DBEntry
p0
(dp1
S'player_cards'
p2
(lp3
S'6'
p4
aS'7'
p5
asS'classification'
p6
(S'hit'
p7
g7
tp8
sS'dealer_card'
p9
S'A'
p10
sb.(i__main__
DBEntry
p0
(dp1
S'player_cards'
p2
(lp3
S'6'
p4
aS'8'
p5
asS'classification'
p6
(S'stand'
p7
g7
tp8
sS'dealer_card'
p9
S'2'
p10
sb.(i__main__
DBEntry
p0
(dp1
S'player_cards'
p2
(lp3
S'6'
p4
aS'8'
p5
asS'classification'
p6
(S'stand'
p7
g7
tp8
sS'dealer_card'
p9
S'3'
p10
sb.(i__main__
DBEntry
p0
(dp1
S'player_cards'
p2
(lp3
S'6'
p4
aS'8'
p5
asS'classification'
p6
(S'stand'
p7
g7
tp8
sS'dealer_card'
p9
S'4'
p10
sb.(i__main__
DBEntry
p0
(dp1
S'player_cards'
p2
(lp3
S'6'
p4
aS'8'
p5
asS'classification'
p6
(S'stand'
p7
g7
tp8
sS'dealer_card'
p9
S'5'
p10
sb.(i__main__
DBEntry
p0
(dp1
S'player_cards'
p2
(lp3
S'6'
p4
aS'8'
p5
asS'classification'
p6
(S'stand'
p7
g7
tp8
sS'dealer_card'
p9
g4
sb.(i__main__
DBEntry
p0
(dp1
S'player_cards'
p2
(lp3
S'6'
p4
aS'8'
p5
asS'classification'
p6
(S'hit'
p7
g7
tp8
sS'dealer_card'
p9
S'7'
p10
sb.(i__main__
DBEntry
p0
(dp1
S'player_cards'
p2
(lp3
S'6'
p4
aS'8'
p5
asS'classification'
p6
(S'hit'
p7
g7
tp8
sS'dealer_card'
p9
g5
sb.(i__main__
DBEntry
p0
(dp1
S'player_cards'
p2
(lp3
S'6'
p4
aS'8'
p5
asS'classification'
p6
(S'hit'
p7
g7
tp8
sS'dealer_card'
p9
S'9'
p10
sb.(i__main__
DBEntry
p0
(dp1
S'player_cards'
p2
(lp3
S'6'
p4
aS'8'
p5
asS'classification'
p6
(S'hit'
p7
g7
tp8
sS'dealer_card'
p9
S'10'
p10
sb.(i__main__
DBEntry
p0
(dp1
S'player_cards'
p2
(lp3
S'6'
p4
aS'8'
p5
asS'classification'
p6
(S'hit'
p7
g7
tp8
sS'dealer_card'
p9
S'A'
p10
sb.(i__main__
DBEntry
p0
(dp1
S'player_cards'
p2
(lp3
S'6'
p4
aS'9'
p5
asS'classification'
p6
(S'stand'
p7
g7
tp8
sS'dealer_card'
p9
S'2'
p10
sb.(i__main__
DBEntry
p0
(dp1
S'player_cards'
p2
(lp3
S'6'
p4
aS'9'
p5
asS'classification'
p6
(S'stand'
p7
g7
tp8
sS'dealer_card'
p9
S'3'
p10
sb.(i__main__
DBEntry
p0
(dp1
S'player_cards'
p2
(lp3
S'6'
p4
aS'9'
p5
asS'classification'
p6
(S'stand'
p7
g7
tp8
sS'dealer_card'
p9
S'4'
p10
sb.(i__main__
DBEntry
p0
(dp1
S'player_cards'
p2
(lp3
S'6'
p4
aS'9'
p5
asS'classification'
p6
(S'stand'
p7
g7
tp8
sS'dealer_card'
p9
S'5'
p10
sb.(i__main__
DBEntry
p0
(dp1
S'player_cards'
p2
(lp3
S'6'
p4
aS'9'
p5
asS'classification'
p6
(S'stand'
p7
g7
tp8
sS'dealer_card'
p9
g4
sb.(i__main__
DBEntry
p0
(dp1
S'player_cards'
p2
(lp3
S'6'
p4
aS'9'
p5
asS'classification'
p6
(S'hit'
p7
g7
tp8
sS'dealer_card'
p9
S'7'
p10
sb.(i__main__
DBEntry
p0
(dp1
S'player_cards'
p2
(lp3
S'6'
p4
aS'9'
p5
asS'classification'
p6
(S'hit'
p7
g7
tp8
sS'dealer_card'
p9
S'8'
p10
sb.(i__main__
DBEntry
p0
(dp1
S'player_cards'
p2
(lp3
S'6'
p4
aS'9'
p5
asS'classification'
p6
(S'hit'
p7
g7
tp8
sS'dealer_card'
p9
g5
sb.(i__main__
DBEntry
p0
(dp1
S'player_cards'
p2
(lp3
S'6'
p4
aS'9'
p5
asS'classification'
p6
(S'hit'
p7
g7
tp8
sS'dealer_card'
p9
S'10'
p10
sb.(i__main__
DBEntry
p0
(dp1
S'player_cards'
p2
(lp3
S'6'
p4
aS'9'
p5
asS'classification'
p6
(S'hit'
p7
g7
tp8
sS'dealer_card'
p9
S'A'
p10
sb.(i__main__
DBEntry
p0
(dp1
S'player_cards'
p2
(lp3
S'6'
p4
aS'10'
p5
asS'classification'
p6
(S'stand'
p7
g7
tp8
sS'dealer_card'
p9
S'2'
p10
sb.(i__main__
DBEntry
p0
(dp1
S'player_cards'
p2
(lp3
S'6'
p4
aS'10'
p5
asS'classification'
p6
(S'stand'
p7
g7
tp8
sS'dealer_card'
p9
S'3'
p10
sb.(i__main__
DBEntry
p0
(dp1
S'player_cards'
p2
(lp3
S'6'
p4
aS'10'
p5
asS'classification'
p6
(S'stand'
p7
g7
tp8
sS'dealer_card'
p9
S'4'
p10
sb.(i__main__
DBEntry
p0
(dp1
S'player_cards'
p2
(lp3
S'6'
p4
aS'10'
p5
asS'classification'
p6
(S'stand'
p7
g7
tp8
sS'dealer_card'
p9
S'5'
p10
sb.(i__main__
DBEntry
p0
(dp1
S'player_cards'
p2
(lp3
S'6'
p4
aS'10'
p5
asS'classification'
p6
(S'stand'
p7
g7
tp8
sS'dealer_card'
p9
g4
sb.(i__main__
DBEntry
p0
(dp1
S'player_cards'
p2
(lp3
S'6'
p4
aS'10'
p5
asS'classification'
p6
(S'hit'
p7
g7
tp8
sS'dealer_card'
p9
S'7'
p10
sb.(i__main__
DBEntry
p0
(dp1
S'player_cards'
p2
(lp3
S'6'
p4
aS'10'
p5
asS'classification'
p6
(S'hit'
p7
g7
tp8
sS'dealer_card'
p9
S'8'
p10
sb.(i__main__
DBEntry
p0
(dp1
S'player_cards'
p2
(lp3
S'6'
p4
aS'10'
p5
asS'classification'
p6
(S'hit'
p7
g7
tp8
sS'dealer_card'
p9
S'9'
p10
sb.(i__main__
DBEntry
p0
(dp1
S'player_cards'
p2
(lp3
S'6'
p4
aS'10'
p5
asS'classification'
p6
(S'hit'
p7
g7
tp8
sS'dealer_card'
p9
g5
sb.(i__main__
DBEntry
p0
(dp1
S'player_cards'
p2
(lp3
S'6'
p4
aS'10'
p5
asS'classification'
p6
(S'hit'
p7
g7
tp8
sS'dealer_card'
p9
S'A'
p10
sb.(i__main__
DBEntry
p0
(dp1
S'player_cards'
p2
(lp3
S'6'
p4
aS'A'
p5
asS'classification'
p6
(S'hit'
p7
g7
tp8
sS'dealer_card'
p9
S'2'
p10
sb.(i__main__
DBEntry
p0
(dp1
S'player_cards'
p2
(lp3
S'6'
p4
aS'A'
p5
asS'classification'
p6
(S'double_down'
p7
g7
tp8
sS'dealer_card'
p9
S'3'
p10
sb.(i__main__
DBEntry
p0
(dp1
S'player_cards'
p2
(lp3
S'6'
p4
aS'A'
p5
asS'classification'
p6
(S'double_down'
p7
g7
tp8
sS'dealer_card'
p9
S'4'
p10
sb.(i__main__
DBEntry
p0
(dp1
S'player_cards'
p2
(lp3
S'6'
p4
aS'A'
p5
asS'classification'
p6
(S'double_down'
p7
g7
tp8
sS'dealer_card'
p9
S'5'
p10
sb.(i__main__
DBEntry
p0
(dp1
S'player_cards'
p2
(lp3
S'6'
p4
aS'A'
p5
asS'classification'
p6
(S'double_down'
p7
g7
tp8
sS'dealer_card'
p9
g4
sb.(i__main__
DBEntry
p0
(dp1
S'player_cards'
p2
(lp3
S'6'
p4
aS'A'
p5
asS'classification'
p6
(S'hit'
p7
g7
tp8
sS'dealer_card'
p9
S'7'
p10
sb.(i__main__
DBEntry
p0
(dp1
S'player_cards'
p2
(lp3
S'6'
p4
aS'A'
p5
asS'classification'
p6
(S'hit'
p7
g7
tp8
sS'dealer_card'
p9
S'8'
p10
sb.(i__main__
DBEntry
p0
(dp1
S'player_cards'
p2
(lp3
S'6'
p4
aS'A'
p5
asS'classification'
p6
(S'hit'
p7
g7
tp8
sS'dealer_card'
p9
S'9'
p10
sb.(i__main__
DBEntry
p0
(dp1
S'player_cards'
p2
(lp3
S'6'
p4
aS'A'
p5
asS'classification'
p6
(S'hit'
p7
g7
tp8
sS'dealer_card'
p9
S'10'
p10
sb.(i__main__
DBEntry
p0
(dp1
S'player_cards'
p2
(lp3
S'6'
p4
aS'A'
p5
asS'classification'
p6
(S'hit'
p7
g7
tp8
sS'dealer_card'
p9
g5
sb.(i__main__
DBEntry
p0
(dp1
S'player_cards'
p2
(lp3
S'7'
p4
ag4
asS'classification'
p5
(S'split'
p6
g6
tp7
sS'dealer_card'
p8
S'2'
p9
sb.(i__main__
DBEntry
p0
(dp1
S'player_cards'
p2
(lp3
S'7'
p4
ag4
asS'classification'
p5
(S'split'
p6
g6
tp7
sS'dealer_card'
p8
S'3'
p9
sb.(i__main__
DBEntry
p0
(dp1
S'player_cards'
p2
(lp3
S'7'
p4
ag4
asS'classification'
p5
(S'split'
p6
g6
tp7
sS'dealer_card'
p8
S'4'
p9
sb.(i__main__
DBEntry
p0
(dp1
S'player_cards'
p2
(lp3
S'7'
p4
ag4
asS'classification'
p5
(S'split'
p6
g6
tp7
sS'dealer_card'
p8
S'5'
p9
sb.(i__main__
DBEntry
p0
(dp1
S'player_cards'
p2
(lp3
S'7'
p4
ag4
asS'classification'
p5
(S'split'
p6
g6
tp7
sS'dealer_card'
p8
S'6'
p9
sb.(i__main__
DBEntry
p0
(dp1
S'player_cards'
p2
(lp3
S'7'
p4
ag4
asS'classification'
p5
(S'split'
p6
g6
tp7
sS'dealer_card'
p8
g4
sb.(i__main__
DBEntry
p0
(dp1
S'player_cards'
p2
(lp3
S'7'
p4
ag4
asS'classification'
p5
(S'hit'
p6
g6
tp7
sS'dealer_card'
p8
S'8'
p9
sb.(i__main__
DBEntry
p0
(dp1
S'player_cards'
p2
(lp3
S'7'
p4
ag4
asS'classification'
p5
(S'hit'
p6
g6
tp7
sS'dealer_card'
p8
S'9'
p9
sb.(i__main__
DBEntry
p0
(dp1
S'player_cards'
p2
(lp3
S'7'
p4
ag4
asS'classification'
p5
(S'hit'
p6
g6
tp7
sS'dealer_card'
p8
S'10'
p9
sb.(i__main__
DBEntry
p0
(dp1
S'player_cards'
p2
(lp3
S'7'
p4
ag4
asS'classification'
p5
(S'hit'
p6
g6
tp7
sS'dealer_card'
p8
S'A'
p9
sb.(i__main__
DBEntry
p0
(dp1
S'player_cards'
p2
(lp3
S'7'
p4
aS'8'
p5
asS'classification'
p6
(S'stand'
p7
g7
tp8
sS'dealer_card'
p9
S'2'
p10
sb.(i__main__
DBEntry
p0
(dp1
S'player_cards'
p2
(lp3
S'7'
p4
aS'8'
p5
asS'classification'
p6
(S'stand'
p7
g7
tp8
sS'dealer_card'
p9
S'3'
p10
sb.(i__main__
DBEntry
p0
(dp1
S'player_cards'
p2
(lp3
S'7'
p4
aS'8'
p5
asS'classification'
p6
(S'stand'
p7
g7
tp8
sS'dealer_card'
p9
S'4'
p10
sb.(i__main__
DBEntry
p0
(dp1
S'player_cards'
p2
(lp3
S'7'
p4
aS'8'
p5
asS'classification'
p6
(S'stand'
p7
g7
tp8
sS'dealer_card'
p9
S'5'
p10
sb.(i__main__
DBEntry
p0
(dp1
S'player_cards'
p2
(lp3
S'7'
p4
aS'8'
p5
asS'classification'
p6
(S'stand'
p7
g7
tp8
sS'dealer_card'
p9
S'6'
p10
sb.(i__main__
DBEntry
p0
(dp1
S'player_cards'
p2
(lp3
S'7'
p4
aS'8'
p5
asS'classification'
p6
(S'hit'
p7
g7
tp8
sS'dealer_card'
p9
g4
sb.(i__main__
DBEntry
p0
(dp1
S'player_cards'
p2
(lp3
S'7'
p4
aS'8'
p5
asS'classification'
p6
(S'hit'
p7
g7
tp8
sS'dealer_card'
p9
g5
sb.(i__main__
DBEntry
p0
(dp1
S'player_cards'
p2
(lp3
S'7'
p4
aS'8'
p5
asS'classification'
p6
(S'hit'
p7
g7
tp8
sS'dealer_card'
p9
S'9'
p10
sb.(i__main__
DBEntry
p0
(dp1
S'player_cards'
p2
(lp3
S'7'
p4
aS'8'
p5
asS'classification'
p6
(S'hit'
p7
g7
tp8
sS'dealer_card'
p9
S'10'
p10
sb.(i__main__
DBEntry
p0
(dp1
S'player_cards'
p2
(lp3
S'7'
p4
aS'8'
p5
asS'classification'
p6
(S'hit'
p7
g7
tp8
sS'dealer_card'
p9
S'A'
p10
sb.(i__main__
DBEntry
p0
(dp1
S'player_cards'
p2
(lp3
S'7'
p4
aS'9'
p5
asS'classification'
p6
(S'stand'
p7
g7
tp8
sS'dealer_card'
p9
S'2'
p10
sb.(i__main__
DBEntry
p0
(dp1
S'player_cards'
p2
(lp3
S'7'
p4
aS'9'
p5
asS'classification'
p6
(S'stand'
p7
g7
tp8
sS'dealer_card'
p9
S'3'
p10
sb.(i__main__
DBEntry
p0
(dp1
S'player_cards'
p2
(lp3
S'7'
p4
aS'9'
p5
asS'classification'
p6
(S'stand'
p7
g7
tp8
sS'dealer_card'
p9
S'4'
p10
sb.(i__main__
DBEntry
p0
(dp1
S'player_cards'
p2
(lp3
S'7'
p4
aS'9'
p5
asS'classification'
p6
(S'stand'
p7
g7
tp8
sS'dealer_card'
p9
S'5'
p10
sb.(i__main__
DBEntry
p0
(dp1
S'player_cards'
p2
(lp3
S'7'
p4
aS'9'
p5
asS'classification'
p6
(S'stand'
p7
g7
tp8
sS'dealer_card'
p9
S'6'
p10
sb.(i__main__
DBEntry
p0
(dp1
S'player_cards'
p2
(lp3
S'7'
p4
aS'9'
p5
asS'classification'
p6
(S'hit'
p7
g7
tp8
sS'dealer_card'
p9
g4
sb.(i__main__
DBEntry
p0
(dp1
S'player_cards'
p2
(lp3
S'7'
p4
aS'9'
p5
asS'classification'
p6
(S'hit'
p7
g7
tp8
sS'dealer_card'
p9
S'8'
p10
sb.(i__main__
DBEntry
p0
(dp1
S'player_cards'
p2
(lp3
S'7'
p4
aS'9'
p5
asS'classification'
p6
(S'hit'
p7
g7
tp8
sS'dealer_card'
p9
g5
sb.(i__main__
DBEntry
p0
(dp1
S'player_cards'
p2
(lp3
S'7'
p4
aS'9'
p5
asS'classification'
p6
(S'hit'
p7
g7
tp8
sS'dealer_card'
p9
S'10'
p10
sb.(i__main__
DBEntry
p0
(dp1
S'player_cards'
p2
(lp3
S'7'
p4
aS'9'
p5
asS'classification'
p6
(S'hit'
p7
g7
tp8
sS'dealer_card'
p9
S'A'
p10
sb.(i__main__
DBEntry
p0
(dp1
S'player_cards'
p2
(lp3
S'7'
p4
aS'10'
p5
asS'classification'
p6
(S'stand'
p7
g7
tp8
sS'dealer_card'
p9
S'2'
p10
sb.(i__main__
DBEntry
p0
(dp1
S'player_cards'
p2
(lp3
S'7'
p4
aS'10'
p5
asS'classification'
p6
(S'stand'
p7
g7
tp8
sS'dealer_card'
p9
S'3'
p10
sb.(i__main__
DBEntry
p0
(dp1
S'player_cards'
p2
(lp3
S'7'
p4
aS'10'
p5
asS'classification'
p6
(S'stand'
p7
g7
tp8
sS'dealer_card'
p9
S'4'
p10
sb.(i__main__
DBEntry
p0
(dp1
S'player_cards'
p2
(lp3
S'7'
p4
aS'10'
p5
asS'classification'
p6
(S'stand'
p7
g7
tp8
sS'dealer_card'
p9
S'5'
p10
sb.(i__main__
DBEntry
p0
(dp1
S'player_cards'
p2
(lp3
S'7'
p4
aS'10'
p5
asS'classification'
p6
(S'stand'
p7
g7
tp8
sS'dealer_card'
p9
S'6'
p10
sb.(i__main__
DBEntry
p0
(dp1
S'player_cards'
p2
(lp3
S'7'
p4
aS'10'
p5
asS'classification'
p6
(S'stand'
p7
g7
tp8
sS'dealer_card'
p9
g4
sb.(i__main__
DBEntry
p0
(dp1
S'player_cards'
p2
(lp3
S'7'
p4
aS'10'
p5
asS'classification'
p6
(S'stand'
p7
g7
tp8
sS'dealer_card'
p9
S'8'
p10
sb.(i__main__
DBEntry
p0
(dp1
S'player_cards'
p2
(lp3
S'7'
p4
aS'10'
p5
asS'classification'
p6
(S'stand'
p7
g7
tp8
sS'dealer_card'
p9
S'9'
p10
sb.(i__main__
DBEntry
p0
(dp1
S'player_cards'
p2
(lp3
S'7'
p4
aS'10'
p5
asS'classification'
p6
(S'stand'
p7
g7
tp8
sS'dealer_card'
p9
g5
sb.(i__main__
DBEntry
p0
(dp1
S'player_cards'
p2
(lp3
S'7'
p4
aS'10'
p5
asS'classification'
p6
(S'stand'
p7
g7
tp8
sS'dealer_card'
p9
S'A'
p10
sb.(i__main__
DBEntry
p0
(dp1
S'player_cards'
p2
(lp3
S'7'
p4
aS'A'
p5
asS'classification'
p6
(S'stand'
p7
g7
tp8
sS'dealer_card'
p9
S'2'
p10
sb.(i__main__
DBEntry
p0
(dp1
S'player_cards'
p2
(lp3
S'7'
p4
aS'A'
p5
asS'classification'
p6
(S'double_down'
p7
g7
tp8
sS'dealer_card'
p9
S'3'
p10
sb.(i__main__
DBEntry
p0
(dp1
S'player_cards'
p2
(lp3
S'7'
p4
aS'A'
p5
asS'classification'
p6
(S'double_down'
p7
g7
tp8
sS'dealer_card'
p9
S'4'
p10
sb.(i__main__
DBEntry
p0
(dp1
S'player_cards'
p2
(lp3
S'7'
p4
aS'A'
p5
asS'classification'
p6
(S'double_down'
p7
g7
tp8
sS'dealer_card'
p9
S'5'
p10
sb.(i__main__
DBEntry
p0
(dp1
S'player_cards'
p2
(lp3
S'7'
p4
aS'A'
p5
asS'classification'
p6
(S'double_down'
p7
g7
tp8
sS'dealer_card'
p9
S'6'
p10
sb.(i__main__
DBEntry
p0
(dp1
S'player_cards'
p2
(lp3
S'7'
p4
aS'A'
p5
asS'classification'
p6
(S'stand'
p7
g7
tp8
sS'dealer_card'
p9
g4
sb.(i__main__
DBEntry
p0
(dp1
S'player_cards'
p2
(lp3
S'7'
p4
aS'A'
p5
asS'classification'
p6
(S'stand'
p7
g7
tp8
sS'dealer_card'
p9
S'8'
p10
sb.(i__main__
DBEntry
p0
(dp1
S'player_cards'
p2
(lp3
S'7'
p4
aS'A'
p5
asS'classification'
p6
(S'hit'
p7
g7
tp8
sS'dealer_card'
p9
S'9'
p10
sb.(i__main__
DBEntry
p0
(dp1
S'player_cards'
p2
(lp3
S'7'
p4
aS'A'
p5
asS'classification'
p6
(S'hit'
p7
g7
tp8
sS'dealer_card'
p9
S'10'
p10
sb.(i__main__
DBEntry
p0
(dp1
S'player_cards'
p2
(lp3
S'7'
p4
aS'A'
p5
asS'classification'
p6
(S'hit'
p7
g7
tp8
sS'dealer_card'
p9
g5
sb.(i__main__
DBEntry
p0
(dp1
S'player_cards'
p2
(lp3
S'8'
p4
ag4
asS'classification'
p5
(S'split'
p6
g6
tp7
sS'dealer_card'
p8
S'2'
p9
sb.(i__main__
DBEntry
p0
(dp1
S'player_cards'
p2
(lp3
S'8'
p4
ag4
asS'classification'
p5
(S'split'
p6
g6
tp7
sS'dealer_card'
p8
S'3'
p9
sb.(i__main__
DBEntry
p0
(dp1
S'player_cards'
p2
(lp3
S'8'
p4
ag4
asS'classification'
p5
(S'split'
p6
g6
tp7
sS'dealer_card'
p8
S'4'
p9
sb.(i__main__
DBEntry
p0
(dp1
S'player_cards'
p2
(lp3
S'8'
p4
ag4
asS'classification'
p5
(S'split'
p6
g6
tp7
sS'dealer_card'
p8
S'5'
p9
sb.(i__main__
DBEntry
p0
(dp1
S'player_cards'
p2
(lp3
S'8'
p4
ag4
asS'classification'
p5
(S'split'
p6
g6
tp7
sS'dealer_card'
p8
S'6'
p9
sb.(i__main__
DBEntry
p0
(dp1
S'player_cards'
p2
(lp3
S'8'
p4
ag4
asS'classification'
p5
(S'split'
p6
g6
tp7
sS'dealer_card'
p8
S'7'
p9
sb.(i__main__
DBEntry
p0
(dp1
S'player_cards'
p2
(lp3
S'8'
p4
ag4
asS'classification'
p5
(S'split'
p6
g6
tp7
sS'dealer_card'
p8
g4
sb.(i__main__
DBEntry
p0
(dp1
S'player_cards'
p2
(lp3
S'8'
p4
ag4
asS'classification'
p5
(S'split'
p6
g6
tp7
sS'dealer_card'
p8
S'9'
p9
sb.(i__main__
DBEntry
p0
(dp1
S'player_cards'
p2
(lp3
S'8'
p4
ag4
asS'classification'
p5
(S'split'
p6
g6
tp7
sS'dealer_card'
p8
S'10'
p9
sb.(i__main__
DBEntry
p0
(dp1
S'player_cards'
p2
(lp3
S'8'
p4
ag4
asS'classification'
p5
(S'split'
p6
g6
tp7
sS'dealer_card'
p8
S'A'
p9
sb.(i__main__
DBEntry
p0
(dp1
S'player_cards'
p2
(lp3
S'8'
p4
aS'9'
p5
asS'classification'
p6
(S'stand'
p7
g7
tp8
sS'dealer_card'
p9
S'2'
p10
sb.(i__main__
DBEntry
p0
(dp1
S'player_cards'
p2
(lp3
S'8'
p4
aS'9'
p5
asS'classification'
p6
(S'stand'
p7
g7
tp8
sS'dealer_card'
p9
S'3'
p10
sb.(i__main__
DBEntry
p0
(dp1
S'player_cards'
p2
(lp3
S'8'
p4
aS'9'
p5
asS'classification'
p6
(S'stand'
p7
g7
tp8
sS'dealer_card'
p9
S'4'
p10
sb.(i__main__
DBEntry
p0
(dp1
S'player_cards'
p2
(lp3
S'8'
p4
aS'9'
p5
asS'classification'
p6
(S'stand'
p7
g7
tp8
sS'dealer_card'
p9
S'5'
p10
sb.(i__main__
DBEntry
p0
(dp1
S'player_cards'
p2
(lp3
S'8'
p4
aS'9'
p5
asS'classification'
p6
(S'stand'
p7
g7
tp8
sS'dealer_card'
p9
S'6'
p10
sb.(i__main__
DBEntry
p0
(dp1
S'player_cards'
p2
(lp3
S'8'
p4
aS'9'
p5
asS'classification'
p6
(S'stand'
p7
g7
tp8
sS'dealer_card'
p9
S'7'
p10
sb.(i__main__
DBEntry
p0
(dp1
S'player_cards'
p2
(lp3
S'8'
p4
aS'9'
p5
asS'classification'
p6
(S'stand'
p7
g7
tp8
sS'dealer_card'
p9
g4
sb.(i__main__
DBEntry
p0
(dp1
S'player_cards'
p2
(lp3
S'8'
p4
aS'9'
p5
asS'classification'
p6
(S'stand'
p7
g7
tp8
sS'dealer_card'
p9
g5
sb.(i__main__
DBEntry
p0
(dp1
S'player_cards'
p2
(lp3
S'8'
p4
aS'9'
p5
asS'classification'
p6
(S'stand'
p7
g7
tp8
sS'dealer_card'
p9
S'10'
p10
sb.(i__main__
DBEntry
p0
(dp1
S'player_cards'
p2
(lp3
S'8'
p4
aS'9'
p5
asS'classification'
p6
(S'stand'
p7
g7
tp8
sS'dealer_card'
p9
S'A'
p10
sb.(i__main__
DBEntry
p0
(dp1
S'player_cards'
p2
(lp3
S'8'
p4
aS'10'
p5
asS'classification'
p6
(S'stand'
p7
g7
tp8
sS'dealer_card'
p9
S'2'
p10
sb.(i__main__
DBEntry
p0
(dp1
S'player_cards'
p2
(lp3
S'8'
p4
aS'10'
p5
asS'classification'
p6
(S'stand'
p7
g7
tp8
sS'dealer_card'
p9
S'3'
p10
sb.(i__main__
DBEntry
p0
(dp1
S'player_cards'
p2
(lp3
S'8'
p4
aS'10'
p5
asS'classification'
p6
(S'stand'
p7
g7
tp8
sS'dealer_card'
p9
S'4'
p10
sb.(i__main__
DBEntry
p0
(dp1
S'player_cards'
p2
(lp3
S'8'
p4
aS'10'
p5
asS'classification'
p6
(S'stand'
p7
g7
tp8
sS'dealer_card'
p9
S'5'
p10
sb.(i__main__
DBEntry
p0
(dp1
S'player_cards'
p2
(lp3
S'8'
p4
aS'10'
p5
asS'classification'
p6
(S'stand'
p7
g7
tp8
sS'dealer_card'
p9
S'6'
p10
sb.(i__main__
DBEntry
p0
(dp1
S'player_cards'
p2
(lp3
S'8'
p4
aS'10'
p5
asS'classification'
p6
(S'stand'
p7
g7
tp8
sS'dealer_card'
p9
S'7'
p10
sb.(i__main__
DBEntry
p0
(dp1
S'player_cards'
p2
(lp3
S'8'
p4
aS'10'
p5
asS'classification'
p6
(S'stand'
p7
g7
tp8
sS'dealer_card'
p9
g4
sb.(i__main__
DBEntry
p0
(dp1
S'player_cards'
p2
(lp3
S'8'
p4
aS'10'
p5
asS'classification'
p6
(S'stand'
p7
g7
tp8
sS'dealer_card'
p9
S'9'
p10
sb.(i__main__
DBEntry
p0
(dp1
S'player_cards'
p2
(lp3
S'8'
p4
aS'10'
p5
asS'classification'
p6
(S'stand'
p7
g7
tp8
sS'dealer_card'
p9
g5
sb.(i__main__
DBEntry
p0
(dp1
S'player_cards'
p2
(lp3
S'8'
p4
aS'10'
p5
asS'classification'
p6
(S'stand'
p7
g7
tp8
sS'dealer_card'
p9
S'A'
p10
sb.(i__main__
DBEntry
p0
(dp1
S'player_cards'
p2
(lp3
S'8'
p4
aS'A'
p5
asS'classification'
p6
(S'stand'
p7
g7
tp8
sS'dealer_card'
p9
S'2'
p10
sb.(i__main__
DBEntry
p0
(dp1
S'player_cards'
p2
(lp3
S'8'
p4
aS'A'
p5
asS'classification'
p6
(S'stand'
p7
g7
tp8
sS'dealer_card'
p9
S'3'
p10
sb.(i__main__
DBEntry
p0
(dp1
S'player_cards'
p2
(lp3
S'8'
p4
aS'A'
p5
asS'classification'
p6
(S'stand'
p7
g7
tp8
sS'dealer_card'
p9
S'4'
p10
sb.(i__main__
DBEntry
p0
(dp1
S'player_cards'
p2
(lp3
S'8'
p4
aS'A'
p5
asS'classification'
p6
(S'stand'
p7
g7
tp8
sS'dealer_card'
p9
S'5'
p10
sb.(i__main__
DBEntry
p0
(dp1
S'player_cards'
p2
(lp3
S'8'
p4
aS'A'
p5
asS'classification'
p6
(S'stand'
p7
g7
tp8
sS'dealer_card'
p9
S'6'
p10
sb.(i__main__
DBEntry
p0
(dp1
S'player_cards'
p2
(lp3
S'8'
p4
aS'A'
p5
asS'classification'
p6
(S'stand'
p7
g7
tp8
sS'dealer_card'
p9
S'7'
p10
sb.(i__main__
DBEntry
p0
(dp1
S'player_cards'
p2
(lp3
S'8'
p4
aS'A'
p5
asS'classification'
p6
(S'stand'
p7
g7
tp8
sS'dealer_card'
p9
g4
sb.(i__main__
DBEntry
p0
(dp1
S'player_cards'
p2
(lp3
S'8'
p4
aS'A'
p5
asS'classification'
p6
(S'stand'
p7
g7
tp8
sS'dealer_card'
p9
S'9'
p10
sb.(i__main__
DBEntry
p0
(dp1
S'player_cards'
p2
(lp3
S'8'
p4
aS'A'
p5
asS'classification'
p6
(S'stand'
p7
g7
tp8
sS'dealer_card'
p9
S'10'
p10
sb.(i__main__
DBEntry
p0
(dp1
S'player_cards'
p2
(lp3
S'8'
p4
aS'A'
p5
asS'classification'
p6
(S'stand'
p7
g7
tp8
sS'dealer_card'
p9
g5
sb.(i__main__
DBEntry
p0
(dp1
S'player_cards'
p2
(lp3
S'9'
p4
ag4
asS'classification'
p5
(S'split'
p6
g6
tp7
sS'dealer_card'
p8
S'2'
p9
sb.(i__main__
DBEntry
p0
(dp1
S'player_cards'
p2
(lp3
S'9'
p4
ag4
asS'classification'
p5
(S'split'
p6
g6
tp7
sS'dealer_card'
p8
S'3'
p9
sb.(i__main__
DBEntry
p0
(dp1
S'player_cards'
p2
(lp3
S'9'
p4
ag4
asS'classification'
p5
(S'split'
p6
g6
tp7
sS'dealer_card'
p8
S'4'
p9
sb.(i__main__
DBEntry
p0
(dp1
S'player_cards'
p2
(lp3
S'9'
p4
ag4
asS'classification'
p5
(S'split'
p6
g6
tp7
sS'dealer_card'
p8
S'5'
p9
sb.(i__main__
DBEntry
p0
(dp1
S'player_cards'
p2
(lp3
S'9'
p4
ag4
asS'classification'
p5
(S'split'
p6
g6
tp7
sS'dealer_card'
p8
S'6'
p9
sb.(i__main__
DBEntry
p0
(dp1
S'player_cards'
p2
(lp3
S'9'
p4
ag4
asS'classification'
p5
(S'stand'
p6
g6
tp7
sS'dealer_card'
p8
S'7'
p9
sb.(i__main__
DBEntry
p0
(dp1
S'player_cards'
p2
(lp3
S'9'
p4
ag4
asS'classification'
p5
(S'split'
p6
g6
tp7
sS'dealer_card'
p8
S'8'
p9
sb.(i__main__
DBEntry
p0
(dp1
S'player_cards'
p2
(lp3
S'9'
p4
ag4
asS'classification'
p5
(S'split'
p6
g6
tp7
sS'dealer_card'
p8
g4
sb.(i__main__
DBEntry
p0
(dp1
S'player_cards'
p2
(lp3
S'9'
p4
ag4
asS'classification'
p5
(S'stand'
p6
g6
tp7
sS'dealer_card'
p8
S'10'
p9
sb.(i__main__
DBEntry
p0
(dp1
S'player_cards'
p2
(lp3
S'9'
p4
ag4
asS'classification'
p5
(S'stand'
p6
g6
tp7
sS'dealer_card'
p8
S'A'
p9
sb.(i__main__
DBEntry
p0
(dp1
S'player_cards'
p2
(lp3
S'9'
p4
aS'10'
p5
asS'classification'
p6
(S'stand'
p7
g7
tp8
sS'dealer_card'
p9
S'2'
p10
sb.(i__main__
DBEntry
p0
(dp1
S'player_cards'
p2
(lp3
S'9'
p4
aS'10'
p5
asS'classification'
p6
(S'stand'
p7
g7
tp8
sS'dealer_card'
p9
S'3'
p10
sb.(i__main__
DBEntry
p0
(dp1
S'player_cards'
p2
(lp3
S'9'
p4
aS'10'
p5
asS'classification'
p6
(S'stand'
p7
g7
tp8
sS'dealer_card'
p9
S'4'
p10
sb.(i__main__
DBEntry
p0
(dp1
S'player_cards'
p2
(lp3
S'9'
p4
aS'10'
p5
asS'classification'
p6
(S'stand'
p7
g7
tp8
sS'dealer_card'
p9
S'5'
p10
sb.(i__main__
DBEntry
p0
(dp1
S'player_cards'
p2
(lp3
S'9'
p4
aS'10'
p5
asS'classification'
p6
(S'stand'
p7
g7
tp8
sS'dealer_card'
p9
S'6'
p10
sb.(i__main__
DBEntry
p0
(dp1
S'player_cards'
p2
(lp3
S'9'
p4
aS'10'
p5
asS'classification'
p6
(S'stand'
p7
g7
tp8
sS'dealer_card'
p9
S'7'
p10
sb.(i__main__
DBEntry
p0
(dp1
S'player_cards'
p2
(lp3
S'9'
p4
aS'10'
p5
asS'classification'
p6
(S'stand'
p7
g7
tp8
sS'dealer_card'
p9
S'8'
p10
sb.(i__main__
DBEntry
p0
(dp1
S'player_cards'
p2
(lp3
S'9'
p4
aS'10'
p5
asS'classification'
p6
(S'stand'
p7
g7
tp8
sS'dealer_card'
p9
g4
sb.(i__main__
DBEntry
p0
(dp1
S'player_cards'
p2
(lp3
S'9'
p4
aS'10'
p5
asS'classification'
p6
(S'stand'
p7
g7
tp8
sS'dealer_card'
p9
g5
sb.(i__main__
DBEntry
p0
(dp1
S'player_cards'
p2
(lp3
S'9'
p4
aS'10'
p5
asS'classification'
p6
(S'stand'
p7
g7
tp8
sS'dealer_card'
p9
S'A'
p10
sb.(i__main__
DBEntry
p0
(dp1
S'player_cards'
p2
(lp3
S'9'
p4
aS'A'
p5
asS'classification'
p6
(S'stand'
p7
g7
tp8
sS'dealer_card'
p9
S'2'
p10
sb.(i__main__
DBEntry
p0
(dp1
S'player_cards'
p2
(lp3
S'9'
p4
aS'A'
p5
asS'classification'
p6
(S'stand'
p7
g7
tp8
sS'dealer_card'
p9
S'3'
p10
sb.(i__main__
DBEntry
p0
(dp1
S'player_cards'
p2
(lp3
S'9'
p4
aS'A'
p5
asS'classification'
p6
(S'stand'
p7
g7
tp8
sS'dealer_card'
p9
S'4'
p10
sb.(i__main__
DBEntry
p0
(dp1
S'player_cards'
p2
(lp3
S'9'
p4
aS'A'
p5
asS'classification'
p6
(S'stand'
p7
g7
tp8
sS'dealer_card'
p9
S'5'
p10
sb.(i__main__
DBEntry
p0
(dp1
S'player_cards'
p2
(lp3
S'9'
p4
aS'A'
p5
asS'classification'
p6
(S'stand'
p7
g7
tp8
sS'dealer_card'
p9
S'6'
p10
sb.(i__main__
DBEntry
p0
(dp1
S'player_cards'
p2
(lp3
S'9'
p4
aS'A'
p5
asS'classification'
p6
(S'stand'
p7
g7
tp8
sS'dealer_card'
p9
S'7'
p10
sb.(i__main__
DBEntry
p0
(dp1
S'player_cards'
p2
(lp3
S'9'
p4
aS'A'
p5
asS'classification'
p6
(S'stand'
p7
g7
tp8
sS'dealer_card'
p9
S'8'
p10
sb.(i__main__
DBEntry
p0
(dp1
S'player_cards'
p2
(lp3
S'9'
p4
aS'A'
p5
asS'classification'
p6
(S'stand'
p7
g7
tp8
sS'dealer_card'
p9
g4
sb.(i__main__
DBEntry
p0
(dp1
S'player_cards'
p2
(lp3
S'9'
p4
aS'A'
p5
asS'classification'
p6
(S'stand'
p7
g7
tp8
sS'dealer_card'
p9
S'10'
p10
sb.(i__main__
DBEntry
p0
(dp1
S'player_cards'
p2
(lp3
S'9'
p4
aS'A'
p5
asS'classification'
p6
(S'stand'
p7
g7
tp8
sS'dealer_card'
p9
g5
sb.(i__main__
DBEntry
p0
(dp1
S'player_cards'
p2
(lp3
S'10'
p4
ag4
asS'classification'
p5
(S'stand'
p6
g6
tp7
sS'dealer_card'
p8
S'2'
p9
sb.(i__main__
DBEntry
p0
(dp1
S'player_cards'
p2
(lp3
S'10'
p4
ag4
asS'classification'
p5
(S'stand'
p6
g6
tp7
sS'dealer_card'
p8
S'3'
p9
sb.(i__main__
DBEntry
p0
(dp1
S'player_cards'
p2
(lp3
S'10'
p4
ag4
asS'classification'
p5
(S'stand'
p6
g6
tp7
sS'dealer_card'
p8
S'4'
p9
sb.(i__main__
DBEntry
p0
(dp1
S'player_cards'
p2
(lp3
S'10'
p4
ag4
asS'classification'
p5
(S'stand'
p6
g6
tp7
sS'dealer_card'
p8
S'5'
p9
sb.(i__main__
DBEntry
p0
(dp1
S'player_cards'
p2
(lp3
S'10'
p4
ag4
asS'classification'
p5
(S'stand'
p6
g6
tp7
sS'dealer_card'
p8
S'6'
p9
sb.(i__main__
DBEntry
p0
(dp1
S'player_cards'
p2
(lp3
S'10'
p4
ag4
asS'classification'
p5
(S'stand'
p6
g6
tp7
sS'dealer_card'
p8
S'7'
p9
sb.(i__main__
DBEntry
p0
(dp1
S'player_cards'
p2
(lp3
S'10'
p4
ag4
asS'classification'
p5
(S'stand'
p6
g6
tp7
sS'dealer_card'
p8
S'8'
p9
sb.(i__main__
DBEntry
p0
(dp1
S'player_cards'
p2
(lp3
S'10'
p4
ag4
asS'classification'
p5
(S'stand'
p6
g6
tp7
sS'dealer_card'
p8
S'9'
p9
sb.(i__main__
DBEntry
p0
(dp1
S'player_cards'
p2
(lp3
S'10'
p4
ag4
asS'classification'
p5
(S'stand'
p6
g6
tp7
sS'dealer_card'
p8
g4
sb.(i__main__
DBEntry
p0
(dp1
S'player_cards'
p2
(lp3
S'10'
p4
ag4
asS'classification'
p5
(S'stand'
p6
g6
tp7
sS'dealer_card'
p8
S'A'
p9
sb.(i__main__
DBEntry
p0
(dp1
S'player_cards'
p2
(lp3
S'10'
p4
aS'A'
p5
asS'classification'
p6
(S'stand'
p7
g7
tp8
sS'dealer_card'
p9
S'2'
p10
sb.(i__main__
DBEntry
p0
(dp1
S'player_cards'
p2
(lp3
S'10'
p4
aS'A'
p5
asS'classification'
p6
(S'stand'
p7
g7
tp8
sS'dealer_card'
p9
S'3'
p10
sb.(i__main__
DBEntry
p0
(dp1
S'player_cards'
p2
(lp3
S'10'
p4
aS'A'
p5
asS'classification'
p6
(S'stand'
p7
g7
tp8
sS'dealer_card'
p9
S'4'
p10
sb.(i__main__
DBEntry
p0
(dp1
S'player_cards'
p2
(lp3
S'10'
p4
aS'A'
p5
asS'classification'
p6
(S'stand'
p7
g7
tp8
sS'dealer_card'
p9
S'5'
p10
sb.(i__main__
DBEntry
p0
(dp1
S'player_cards'
p2
(lp3
S'10'
p4
aS'A'
p5
asS'classification'
p6
(S'stand'
p7
g7
tp8
sS'dealer_card'
p9
S'6'
p10
sb.(i__main__
DBEntry
p0
(dp1
S'player_cards'
p2
(lp3
S'10'
p4
aS'A'
p5
asS'classification'
p6
(S'stand'
p7
g7
tp8
sS'dealer_card'
p9
S'7'
p10
sb.(i__main__
DBEntry
p0
(dp1
S'player_cards'
p2
(lp3
S'10'
p4
aS'A'
p5
asS'classification'
p6
(S'stand'
p7
g7
tp8
sS'dealer_card'
p9
S'8'
p10
sb.(i__main__
DBEntry
p0
(dp1
S'player_cards'
p2
(lp3
S'10'
p4
aS'A'
p5
asS'classification'
p6
(S'stand'
p7
g7
tp8
sS'dealer_card'
p9
S'9'
p10
sb.(i__main__
DBEntry
p0
(dp1
S'player_cards'
p2
(lp3
S'10'
p4
aS'A'
p5
asS'classification'
p6
(S'stand'
p7
g7
tp8
sS'dealer_card'
p9
g4
sb.(i__main__
DBEntry
p0
(dp1
S'player_cards'
p2
(lp3
S'10'
p4
aS'A'
p5
asS'classification'
p6
(S'stand'
p7
g7
tp8
sS'dealer_card'
p9
g5
sb.(i__main__
DBEntry
p0
(dp1
S'player_cards'
p2
(lp3
S'A'
p4
ag4
asS'classification'
p5
(S'split'
p6
g6
tp7
sS'dealer_card'
p8
S'2'
p9
sb.(i__main__
DBEntry
p0
(dp1
S'player_cards'
p2
(lp3
S'A'
p4
ag4
asS'classification'
p5
(S'split'
p6
g6
tp7
sS'dealer_card'
p8
S'3'
p9
sb.(i__main__
DBEntry
p0
(dp1
S'player_cards'
p2
(lp3
S'A'
p4
ag4
asS'classification'
p5
(S'split'
p6
g6
tp7
sS'dealer_card'
p8
S'4'
p9
sb.(i__main__
DBEntry
p0
(dp1
S'player_cards'
p2
(lp3
S'A'
p4
ag4
asS'classification'
p5
(S'split'
p6
g6
tp7
sS'dealer_card'
p8
S'5'
p9
sb.(i__main__
DBEntry
p0
(dp1
S'player_cards'
p2
(lp3
S'A'
p4
ag4
asS'classification'
p5
(S'split'
p6
g6
tp7
sS'dealer_card'
p8
S'6'
p9
sb.(i__main__
DBEntry
p0
(dp1
S'player_cards'
p2
(lp3
S'A'
p4
ag4
asS'classification'
p5
(S'split'
p6
g6
tp7
sS'dealer_card'
p8
S'7'
p9
sb.(i__main__
DBEntry
p0
(dp1
S'player_cards'
p2
(lp3
S'A'
p4
ag4
asS'classification'
p5
(S'split'
p6
g6
tp7
sS'dealer_card'
p8
S'8'
p9
sb.(i__main__
DBEntry
p0
(dp1
S'player_cards'
p2
(lp3
S'A'
p4
ag4
asS'classification'
p5
(S'split'
p6
g6
tp7
sS'dealer_card'
p8
S'9'
p9
sb.(i__main__
DBEntry
p0
(dp1
S'player_cards'
p2
(lp3
S'A'
p4
ag4
asS'classification'
p5
(S'split'
p6
g6
tp7
sS'dealer_card'
p8
S'10'
p9
sb.(i__main__
DBEntry
p0
(dp1
S'player_cards'
p2
(lp3
S'A'
p4
ag4
asS'classification'
p5
(S'split'
p6
g6
tp7
sS'dealer_card'
p8
g4
sb.