(i__main__
DBEntry
p0
(dp1
S'player_cards'
p2
(lp3
S'10'
p4
aS'A'
p5
asS'rank'
p6
(dp7
S'double_down'
p8
F-0.3525
sS'hit'
p9
F-0.177915
sS'stand'
p10
F0.63883
ssS'classification'
p11
(g10
F0.63883
tp12
sS'dealer_card'
p13
g5
sb.(i__main__
DBEntry
p0
(dp1
S'player_cards'
p2
(lp3
S'10'
p4
aS'A'
p5
asS'rank'
p6
(dp7
S'double_down'
p8
F0.0711
sS'hit'
p9
F0.02737
sS'stand'
p10
F0.889015
ssS'classification'
p11
(g10
F0.889015
tp12
sS'dealer_card'
p13
g4
sb.(i__main__
DBEntry
p0
(dp1
S'player_cards'
p2
(lp3
S'10'
p4
aS'A'
p5
asS'rank'
p6
(dp7
S'double_down'
p8
F0.22774
sS'hit'
p9
F0.11564
sS'stand'
p10
F0.93915
ssS'classification'
p11
(g10
F0.93915
tp12
sS'dealer_card'
p13
S'9'
p14
sb.(i__main__
DBEntry
p0
(dp1
S'player_cards'
p2
(lp3
S'10'
p4
aS'A'
p5
asS'rank'
p6
(dp7
S'double_down'
p8
F0.35276
sS'hit'
p9
F0.174575
sS'stand'
p10
F0.930445
ssS'classification'
p11
(g10
F0.930445
tp12
sS'dealer_card'
p13
S'8'
p14
sb.(i__main__
DBEntry
p0
(dp1
S'player_cards'
p2
(lp3
S'10'
p4
aS'A'
p5
asS'rank'
p6
(dp7
S'double_down'
p8
F0.4649
sS'hit'
p9
F0.231045
sS'stand'
p10
F0.92536
ssS'classification'
p11
(g10
F0.92536
tp12
sS'dealer_card'
p13
S'7'
p14
sb.(i__main__
DBEntry
p0
(dp1
S'player_cards'
p2
(lp3
S'10'
p4
aS'A'
p5
asS'rank'
p6
(dp7
S'double_down'
p8
F0.66158
sS'hit'
p9
F0.33126
sS'stand'
p10
F0.903555
ssS'classification'
p11
(g10
F0.903555
tp12
sS'dealer_card'
p13
S'6'
p14
sb.(i__main__
DBEntry
p0
(dp1
S'player_cards'
p2
(lp3
S'10'
p4
aS'A'
p5
asS'rank'
p6
(dp7
S'double_down'
p8
F0.61604
sS'hit'
p9
F0.306085
sS'stand'
p10
F0.891375
ssS'classification'
p11
(g10
F0.891375
tp12
sS'dealer_card'
p13
S'5'
p14
sb.(i__main__
DBEntry
p0
(dp1
S'player_cards'
p2
(lp3
S'10'
p4
aS'A'
p5
asS'rank'
p6
(dp7
S'double_down'
p8
F0.56931
sS'hit'
p9
F0.282165
sS'stand'
p10
F0.88793
ssS'classification'
p11
(g10
F0.88793
tp12
sS'dealer_card'
p13
S'4'
p14
sb.(i__main__
DBEntry
p0
(dp1
S'player_cards'
p2
(lp3
S'10'
p4
aS'A'
p5
asS'rank'
p6
(dp7
S'double_down'
p8
F0.51877
sS'hit'
p9
F0.25921
sS'stand'
p10
F0.88608
ssS'classification'
p11
(g10
F0.88608
tp12
sS'dealer_card'
p13
S'3'
p14
sb.(i__main__
DBEntry
p0
(dp1
S'player_cards'
p2
(lp3
S'10'
p4
aS'A'
p5
asS'rank'
p6
(dp7
S'double_down'
p8
F0.46374
sS'hit'
p9
F0.235335
sS'stand'
p10
F0.88248
ssS'classification'
p11
(g10
F0.88248
tp12
sS'dealer_card'
p13
S'2'
p14
sb.(i__main__
DBEntry
p0
(dp1
S'player_cards'
p2
(lp3
S'9'
p4
aS'A'
p5
asS'rank'
p6
(dp7
S'double_down'
p8
F-0.57838
sS'hit'
p9
F-0.287495
sS'stand'
p10
F0.147285
ssS'classification'
p11
(g10
F0.147285
tp12
sS'dealer_card'
p13
g5
sb.(i__main__
DBEntry
p0
(dp1
S'player_cards'
p2
(lp3
S'9'
p4
aS'A'
p5
asS'rank'
p6
(dp7
S'double_down'
p8
F-0.15556
sS'hit'
p9
F-0.0725
sS'stand'
p10
F0.43478
ssS'classification'
p11
(g10
F0.43478
tp12
sS'dealer_card'
p13
S'10'
p14
sb.(i__main__
DBEntry
p0
(dp1
S'player_cards'
p2
(lp3
S'9'
p4
aS'A'
p5
asS'rank'
p6
(dp7
S'double_down'
p8
F0.14514
sS'hit'
p9
F0.07356
sS'stand'
p10
F0.75563
ssS'classification'
p11
(g10
F0.75563
tp12
sS'dealer_card'
p13
g4
sb.(i__main__
DBEntry
p0
(dp1
S'player_cards'
p2
(lp3
S'9'
p4
aS'A'
p5
asS'rank'
p6
(dp7
S'double_down'
p8
F0.28607
sS'hit'
p9
F0.144535
sS'stand'
p10
F0.790555
ssS'classification'
p11
(g10
F0.790555
tp12
sS'dealer_card'
p13
S'8'
p14
sb.(i__main__
DBEntry
p0
(dp1
S'player_cards'
p2
(lp3
S'9'
p4
aS'A'
p5
asS'rank'
p6
(dp7
S'double_down'
p8
F0.40084
sS'hit'
p9
F0.196575
sS'stand'
p10
F0.772655
ssS'classification'
p11
(g10
F0.772655
tp12
sS'dealer_card'
p13
S'7'
p14
sb.(i__main__
DBEntry
p0
(dp1
S'player_cards'
p2
(lp3
S'9'
p4
aS'A'
p5
asS'rank'
p6
(dp7
S'double_down'
p8
F0.57804
sS'hit'
p9
F0.28544
sS'stand'
p10
F0.704015
ssS'classification'
p11
(g10
F0.704015
tp12
sS'dealer_card'
p13
S'6'
p14
sb.(i__main__
DBEntry
p0
(dp1
S'player_cards'
p2
(lp3
S'9'
p4
aS'A'
p5
asS'rank'
p6
(dp7
S'double_down'
p8
F0.52004
sS'hit'
p9
F0.25901
sS'stand'
p10
F0.667275
ssS'classification'
p11
(g10
F0.667275
tp12
sS'dealer_card'
p13
S'5'
p14
sb.(i__main__
DBEntry
p0
(dp1
S'player_cards'
p2
(lp3
S'9'
p4
aS'A'
p5
asS'rank'
p6
(dp7
S'double_down'
p8
F0.46194
sS'hit'
p9
F0.22504
sS'stand'
p10
F0.661045
ssS'classification'
p11
(g10
F0.661045
tp12
sS'dealer_card'
p13
S'4'
p14
sb.(i__main__
DBEntry
p0
(dp1
S'player_cards'
p2
(lp3
S'9'
p4
aS'A'
p5
asS'rank'
p6
(dp7
S'double_down'
p8
F0.40979
sS'hit'
p9
F0.20286
sS'stand'
p10
F0.65106
ssS'classification'
p11
(g10
F0.65106
tp12
sS'dealer_card'
p13
S'3'
p14
sb.(i__main__
DBEntry
p0
(dp1
S'player_cards'
p2
(lp3
S'9'
p4
aS'A'
p5
asS'rank'
p6
(dp7
S'double_down'
p8
F0.35227
sS'hit'
p9
F0.176355
sS'stand'
p10
F0.64331
ssS'classification'
p11
(g10
F0.64331
tp12
sS'dealer_card'
p13
S'2'
p14
sb.(i__main__
DBEntry
p0
(dp1
S'player_cards'
p2
(lp3
S'8'
p4
aS'A'
p5
asS'rank'
p6
(dp7
S'double_down'
p8
F-0.70336
sS'hit'
p9
F-0.34462
sS'stand'
p10
F-0.115465
ssS'classification'
p11
(g10
F-0.115465
tp12
sS'dealer_card'
p13
g5
sb.(i__main__
DBEntry
p0
(dp1
S'player_cards'
p2
(lp3
S'9'
p4
aS'10'
p5
asS'rank'
p6
(dp7
S'double_down'
p8
F-1.57421
sS'hit'
p9
F-0.78718
sS'stand'
p10
F-0.114315
ssS'classification'
p11
(g10
F-0.114315
tp12
sS'dealer_card'
p13
S'A'
p14
sb.(i__main__
DBEntry
p0
(dp1
S'player_cards'
p2
(lp3
S'8'
p4
aS'A'
p5
asS'rank'
p6
(dp7
S'double_down'
p8
F-0.36081
sS'hit'
p9
F-0.17967
sS'stand'
p10
F-0.022495
ssS'classification'
p11
(g10
F-0.022495
tp12
sS'dealer_card'
p13
S'10'
p14
sb.(i__main__
DBEntry
p0
(dp1
S'player_cards'
p2
(lp3
S'9'
p4
aS'10'
p5
asS'rank'
p6
(dp7
S'double_down'
p8
F-1.49084
sS'hit'
p9
F-0.74366
sS'stand'
p10
F-0.01843
ssS'classification'
p11
(g10
F-0.01843
tp12
sS'dealer_card'
p13
g5
sb.(i__main__
DBEntry
p0
(dp1
S'player_cards'
p2
(lp3
S'8'
p4
aS'A'
p5
asS'rank'
p6
(dp7
S'double_down'
p8
F-0.0751
sS'hit'
p9
F-0.03532
sS'stand'
p10
F0.286855
ssS'classification'
p11
(g10
F0.286855
tp12
sS'dealer_card'
p13
S'9'
p14
sb.(i__main__
DBEntry
p0
(dp1
S'player_cards'
p2
(lp3
S'9'
p4
aS'10'
p5
asS'rank'
p6
(dp7
S'double_down'
p8
F-1.4332
sS'hit'
p9
F-0.71911
sS'stand'
p10
F0.286405
ssS'classification'
p11
(g10
F0.286405
tp12
sS'dealer_card'
p13
g4
sb.(i__main__
DBEntry
p0
(dp1
S'player_cards'
p2
(lp3
S'8'
p4
aS'A'
p5
asS'rank'
p6
(dp7
S'double_down'
p8
F0.19487
sS'hit'
p9
F0.098155
sS'stand'
p10
F0.59179
ssS'classification'
p11
(g10
F0.59179
tp12
sS'dealer_card'
p13
g4
sb.(i__main__
DBEntry
p0
(dp1
S'player_cards'
p2
(lp3
S'9'
p4
aS'10'
p5
asS'rank'
p6
(dp7
S'double_down'
p8
F-1.42711
sS'hit'
p9
F-0.714105
sS'stand'
p10
F0.59315
ssS'classification'
p11
(g10
F0.59315
tp12
sS'dealer_card'
p13
S'8'
p14
sb.(i__main__
DBEntry
p0
(dp1
S'player_cards'
p2
(lp3
S'8'
p4
aS'A'
p5
asS'rank'
p6
(dp7
S'double_down'
p8
F0.32096
sS'hit'
p9
F0.158435
sS'stand'
p10
F0.61555
ssS'classification'
p11
(g10
F0.61555
tp12
sS'dealer_card'
p13
S'7'
p14
sb.(i__main__
DBEntry
p0
(dp1
S'player_cards'
p2
(lp3
S'9'
p4
aS'10'
p5
asS'rank'
p6
(dp7
S'double_down'
p8
F-1.43411
sS'hit'
p9
F-0.711705
sS'stand'
p10
F0.61636
ssS'classification'
p11
(g10
F0.61636
tp12
sS'dealer_card'
p13
S'7'
p14
sb.(i__main__
DBEntry
p0
(dp1
S'player_cards'
p2
(lp3
S'8'
p4
aS'A'
p5
asS'rank'
p6
(dp7
S'double_down'
p8
F0.47518
sS'hit'
p9
F0.240055
sS'stand'
p10
F0.496715
ssS'classification'
p11
(g10
F0.496715
tp12
sS'dealer_card'
p13
S'6'
p14
sb.(i__main__
DBEntry
p0
(dp1
S'player_cards'
p2
(lp3
S'9'
p4
aS'10'
p5
asS'rank'
p6
(dp7
S'double_down'
p8
F-1.44241
sS'hit'
p9
F-0.721925
sS'stand'
p10
F0.496635
ssS'classification'
p11
(g10
F0.496635
tp12
sS'dealer_card'
p13
S'6'
p14
sb.(i__main__
DBEntry
p0
(dp1
S'player_cards'
p2
(lp3
S'8'
p4
aS'A'
p5
asS'rank'
p6
(dp7
S'double_down'
p8
F0.41046
sS'hit'
p9
F0.204105
sS'stand'
p10
F0.438985
ssS'classification'
p11
(g10
F0.438985
tp12
sS'dealer_card'
p13
S'5'
p14
sb.(i__main__
DBEntry
p0
(dp1
S'player_cards'
p2
(lp3
S'9'
p4
aS'10'
p5
asS'rank'
p6
(dp7
S'double_down'
p8
F-1.45477
sS'hit'
p9
F-0.726715
sS'stand'
p10
F0.43787
ssS'classification'
p11
(g10
F0.43787
tp12
sS'dealer_card'
p13
S'5'
p14
sb.(i__main__
DBEntry
p0
(dp1
S'player_cards'
p2
(lp3
S'8'
p4
aS'A'
p5
asS'rank'
p6
(dp7
S'double_down'
p8
F0.34669
sS'hit'
p9
F0.176365
sS'stand'
p10
F0.42328
ssS'classification'
p11
(g10
F0.42328
tp12
sS'dealer_card'
p13
S'4'
p14
sb.(i__main__
DBEntry
p0
(dp1
S'player_cards'
p2
(lp3
S'9'
p4
aS'10'
p5
asS'rank'
p6
(dp7
S'double_down'
p8
F-1.45019
sS'hit'
p9
F-0.725905
sS'stand'
p10
F0.42218
ssS'classification'
p11
(g10
F0.42218
tp12
sS'dealer_card'
p13
S'4'
p14
sb.(i__main__
DBEntry
p0
(dp1
S'player_cards'
p2
(lp3
S'8'
p4
aS'A'
p5
asS'rank'
p6
(dp7
S'double_down'
p8
F0.29951
sS'hit'
p9
F0.14717
sS'stand'
p10
F0.40335
ssS'classification'
p11
(g10
F0.40335
tp12
sS'dealer_card'
p13
S'3'
p14
sb.(i__main__
DBEntry
p0
(dp1
S'player_cards'
p2
(lp3
S'9'
p4
aS'10'
p5
asS'rank'
p6
(dp7
S'double_down'
p8
F-1.45552
sS'hit'
p9
F-0.728835
sS'stand'
p10
F0.40388
ssS'classification'
p11
(g10
F0.40388
tp12
sS'dealer_card'
p13
S'3'
p14
sb.(i__main__
DBEntry
p0
(dp1
S'player_cards'
p2
(lp3
S'8'
p4
aS'A'
p5
asS'rank'
p6
(dp7
S'double_down'
p8
F0.23849
sS'hit'
p9
F0.11966
sS'stand'
p10
F0.38548
ssS'classification'
p11
(g10
F0.38548
tp12
sS'dealer_card'
p13
S'2'
p14
sb.(i__main__
DBEntry
p0
(dp1
S'player_cards'
p2
(lp3
S'9'
p4
aS'10'
p5
asS'rank'
p6
(dp7
S'double_down'
p8
F-1.46168
sS'hit'
p9
F-0.73113
sS'stand'
p10
F0.388185
ssS'classification'
p11
(g10
F0.388185
tp12
sS'dealer_card'
p13
S'2'
p14
sb.(i__main__
DBEntry
p0
(dp1
S'player_cards'
p2
(lp3
S'7'
p4
aS'A'
p5
asS'rank'
p6
(dp7
S'double_down'
p8
F-0.81934
sS'hit'
p9
F-0.408445
sS'stand'
p10
F-0.37752
ssS'classification'
p11
(g10
F-0.37752
tp12
sS'dealer_card'
p13
g5
sb.(i__main__
DBEntry
p0
(dp1
S'player_cards'
p2
(lp3
S'8'
p4
aS'10'
p5
asS'rank'
p6
(dp7
S'double_down'
p8
F-1.43475
sS'hit'
p9
F-0.718585
sS'stand'
p10
F-0.37501
ssS'classification'
p11
(g10
F-0.37501
tp12
sS'dealer_card'
p13
S'A'
p14
sb.(i__main__
DBEntry
p0
(dp1
S'player_cards'
p2
(lp3
S'7'
p4
aS'A'
p5
asS'rank'
p6
(dp7
S'double_down'
p8
F-0.46456
sS'hit'
p9
F-0.23087
sS'stand'
p10
F-0.24461
ssS'classification'
p11
(g9
F-0.23087
tp12
sS'dealer_card'
p13
S'10'
p14
sb.(i__main__
DBEntry
p0
(dp1
S'player_cards'
p2
(lp3
S'8'
p4
aS'10'
p5
asS'rank'
p6
(dp7
S'double_down'
p8
F-1.33387
sS'hit'
p9
F-0.66826
sS'stand'
p10
F-0.24709
ssS'classification'
p11
(g10
F-0.24709
tp12
sS'dealer_card'
p13
g5
sb.(i__main__
DBEntry
p0
(dp1
S'player_cards'
p2
(lp3
S'7'
p4
aS'A'
p5
asS'rank'
p6
(dp7
S'double_down'
p8
F-0.29027
sS'hit'
p9
F-0.147035
sS'stand'
p10
F-0.18392
ssS'classification'
p11
(g9
F-0.147035
tp12
sS'dealer_card'
p13
S'9'
p14
sb.(i__main__
DBEntry
p0
(dp1
S'player_cards'
p2
(lp3
S'8'
p4
aS'10'
p5
asS'rank'
p6
(dp7
S'double_down'
p8
F-1.23545
sS'hit'
p9
F-0.617365
sS'stand'
p10
F-0.184245
ssS'classification'
p11
(g10
F-0.184245
tp12
sS'dealer_card'
p13
S'9'
p14
sb.(i__main__
DBEntry
p0
(dp1
S'player_cards'
p2
(lp3
S'7'
p4
aS'A'
p5
asS'rank'
p6
(dp7
S'double_down'
p8
F-0.03786
sS'hit'
p9
F-0.01366
sS'stand'
p10
F0.106205
ssS'classification'
p11
(g10
F0.106205
tp12
sS'dealer_card'
p13
S'8'
p14
sb.(i__main__
DBEntry
p0
(dp1
S'player_cards'
p2
(lp3
S'8'
p4
aS'10'
p5
asS'rank'
p6
(dp7
S'double_down'
p8
F-1.17414
sS'hit'
p9
F-0.58918
sS'stand'
p10
F0.108835
ssS'classification'
p11
(g10
F0.108835
tp12
sS'dealer_card'
p13
g4
sb.(i__main__
DBEntry
p0
(dp1
S'player_cards'
p2
(lp3
S'7'
p4
aS'A'
p5
asS'rank'
p6
(dp7
S'double_down'
p8
F0.22127
sS'hit'
p9
F0.112245
sS'stand'
p10
F0.395755
ssS'classification'
p11
(g10
F0.395755
tp12
sS'dealer_card'
p13
g4
sb.(i__main__
DBEntry
p0
(dp1
S'player_cards'
p2
(lp3
S'8'
p4
aS'10'
p5
asS'rank'
p6
(dp7
S'double_down'
p8
F-1.1847
sS'hit'
p9
F-0.59106
sS'stand'
p10
F0.39854
ssS'classification'
p11
(g10
F0.39854
tp12
sS'dealer_card'
p13
S'7'
p14
sb.(i__main__
DBEntry
p0
(dp1
S'player_cards'
p2
(lp3
S'7'
p4
aS'A'
p5
asS'rank'
p6
(dp7
S'double_down'
p8
F0.38373
sS'hit'
p9
F0.19394
sS'stand'
p10
F0.28099
ssS'classification'
p11
(g8
F0.38373
tp12
sS'dealer_card'
p13
S'6'
p14
sb.(i__main__
DBEntry
p0
(dp1
S'player_cards'
p2
(lp3
S'8'
p4
aS'10'
p5
asS'rank'
p6
(dp7
S'double_down'
p8
F-1.21366
sS'hit'
p9
F-0.606165
sS'stand'
p10
F0.28033
ssS'classification'
p11
(g10
F0.28033
tp12
sS'dealer_card'
p13
S'6'
p14
sb.(i__main__
DBEntry
p0
(dp1
S'player_cards'
p2
(lp3
S'7'
p4
aS'A'
p5
asS'rank'
p6
(dp7
S'double_down'
p8
F0.29406
sS'hit'
p9
F0.14721
sS'stand'
p10
F0.19982
ssS'classification'
p11
(g8
F0.29406
tp12
sS'dealer_card'
p13
S'5'
p14
sb.(i__main__
DBEntry
p0
(dp1
S'player_cards'
p2
(lp3
S'8'
p4
aS'10'
p5
asS'rank'
p6
(dp7
S'double_down'
p8
F-1.23086
sS'hit'
p9
F-0.61624
sS'stand'
p10
F0.197925
ssS'classification'
p11
(g10
F0.197925
tp12
sS'dealer_card'
p13
S'5'
p14
sb.(i__main__
DBEntry
p0
(dp1
S'player_cards'
p2
(lp3
S'7'
p4
aS'A'
p5
asS'rank'
p6
(dp7
S'double_down'
p8
F0.23482
sS'hit'
p9
F0.117735
sS'stand'
p10
F0.17723
ssS'classification'
p11
(g8
F0.23482
tp12
sS'dealer_card'
p13
S'4'
p14
sb.(i__main__
DBEntry
p0
(dp1
S'player_cards'
p2
(lp3
S'8'
p4
aS'10'
p5
asS'rank'
p6
(dp7
S'double_down'
p8
F-1.23585
sS'hit'
p9
F-0.61539
sS'stand'
p10
F0.176105
ssS'classification'
p11
(g10
F0.176105
tp12
sS'dealer_card'
p13
S'4'
p14
sb.(i__main__
DBEntry
p0
(dp1
S'player_cards'
p2
(lp3
S'7'
p4
aS'A'
p5
asS'rank'
p6
(dp7
S'double_down'
p8
F0.17966
sS'hit'
p9
F0.088835
sS'stand'
p10
F0.145165
ssS'classification'
p11
(g8
F0.17966
tp12
sS'dealer_card'
p13
S'3'
p14
sb.(i__main__
DBEntry
p0
(dp1
S'player_cards'
p2
(lp3
S'8'
p4
aS'10'
p5
asS'rank'
p6
(dp7
S'double_down'
p8
F-1.24283
sS'hit'
p9
F-0.622065
sS'stand'
p10
F0.15117
ssS'classification'
p11
(g10
F0.15117
tp12
sS'dealer_card'
p13
S'3'
p14
sb.(i__main__
DBEntry
p0
(dp1
S'player_cards'
p2
(lp3
S'7'
p4
aS'A'
p5
asS'rank'
p6
(dp7
S'double_down'
p8
F0.12432
sS'hit'
p9
F0.05882
sS'stand'
p10
F0.1207
ssS'classification'
p11
(g8
F0.12432
tp12
sS'dealer_card'
p13
S'2'
p14
sb.(i__main__
DBEntry
p0
(dp1
S'player_cards'
p2
(lp3
S'8'
p4
aS'10'
p5
asS'rank'
p6
(dp7
S'double_down'
p8
F-1.24262
sS'hit'
p9
F-0.620715
sS'stand'
p10
F0.11767
ssS'classification'
p11
(g10
F0.11767
tp12
sS'dealer_card'
p13
S'2'
p14
sb.(i__main__
DBEntry
p0
(dp1
S'player_cards'
p2
(lp3
S'6'
p4
aS'A'
p5
asS'rank'
p6
(dp7
S'double_down'
p8
F-0.93465
sS'hit'
p9
F-0.470355
sS'stand'
p10
F-0.64057
ssS'classification'
p11
(g9
F-0.470355
tp12
sS'dealer_card'
p13
g5
sb.(i__main__
DBEntry
p0
(dp1
S'player_cards'
p2
(lp3
S'7'
p4
aS'10'
p5
asS'rank'
p6
(dp7
S'double_down'
p8
F-1.34037
sS'hit'
p9
F-0.673075
sS'stand'
p10
F-0.63817
ssS'classification'
p11
(g10
F-0.63817
tp12
sS'dealer_card'
p13
S'A'
p14
sb.(i__main__
DBEntry
p0
(dp1
S'player_cards'
p2
(lp3
S'8'
p4
aS'9'
p5
asS'rank'
p6
(dp7
S'double_down'
p8
F-1.33439
sS'hit'
p9
F-0.669645
sS'stand'
p10
F-0.63707
ssS'classification'
p11
(g10
F-0.63707
tp12
sS'dealer_card'
p13
S'A'
p14
sb.(i__main__
DBEntry
p0
(dp1
S'player_cards'
p2
(lp3
S'6'
p4
aS'A'
p5
asS'rank'
p6
(dp7
S'double_down'
p8
F-0.56465
sS'hit'
p9
F-0.28106
sS'stand'
p10
F-0.461125
ssS'classification'
p11
(g9
F-0.28106
tp12
sS'dealer_card'
p13
S'10'
p14
sb.(i__main__
DBEntry
p0
(dp1
S'player_cards'
p2
(lp3
S'7'
p4
aS'10'
p5
asS'rank'
p6
(dp7
S'double_down'
p8
F-1.21974
sS'hit'
p9
F-0.61005
sS'stand'
p10
F-0.467145
ssS'classification'
p11
(g10
F-0.467145
tp12
sS'dealer_card'
p13
g5
sb.(i__main__
DBEntry
p0
(dp1
S'player_cards'
p2
(lp3
S'8'
p4
aS'9'
p5
asS'rank'
p6
(dp7
S'double_down'
p8
F-1.22359
sS'hit'
p9
F-0.610945
sS'stand'
p10
F-0.465875
ssS'classification'
p11
(g10
F-0.465875
tp12
sS'dealer_card'
p13
S'10'
p14
sb.(i__main__
DBEntry
p0
(dp1
S'player_cards'
p2
(lp3
S'6'
p4
aS'A'
p5
asS'rank'
p6
(dp7
S'double_down'
p8
F-0.39707
sS'hit'
p9
F-0.199115
sS'stand'
p10
F-0.42097
ssS'classification'
p11
(g9
F-0.199115
tp12
sS'dealer_card'
p13
S'9'
p14
sb.(i__main__
DBEntry
p0
(dp1
S'player_cards'
p2
(lp3
S'7'
p4
aS'10'
p5
asS'rank'
p6
(dp7
S'double_down'
p8
F-1.10308
sS'hit'
p9
F-0.552505
sS'stand'
p10
F-0.42374
ssS'classification'
p11
(g10
F-0.42374
tp12
sS'dealer_card'
p13
S'9'
p14
sb.(i__main__
DBEntry
p0
(dp1
S'player_cards'
p2
(lp3
S'8'
p4
aS'9'
p5
asS'rank'
p6
(dp7
S'double_down'
p8
F-1.10818
sS'hit'
p9
F-0.553705
sS'stand'
p10
F-0.424975
ssS'classification'
p11
(g10
F-0.424975
tp12
sS'dealer_card'
p13
g5
sb.(i__main__
DBEntry
p0
(dp1
S'player_cards'
p2
(lp3
S'6'
p4
aS'A'
p5
asS'rank'
p6
(dp7
S'double_down'
p8
F-0.25385
sS'hit'
p9
F-0.132895
sS'stand'
p10
F-0.381855
ssS'classification'
p11
(g9
F-0.132895
tp12
sS'dealer_card'
p13
S'8'
p14
sb.(i__main__
DBEntry
p0
(dp1
S'player_cards'
p2
(lp3
S'7'
p4
aS'10'
p5
asS'rank'
p6
(dp7
S'double_down'
p8
F-1.01107
sS'hit'
p9
F-0.5064
sS'stand'
p10
F-0.382625
ssS'classification'
p11
(g10
F-0.382625
tp12
sS'dealer_card'
p13
S'8'
p14
sb.(i__main__
DBEntry
p0
(dp1
S'player_cards'
p2
(lp3
S'8'
p4
aS'9'
p5
asS'rank'
p6
(dp7
S'double_down'
p8
F-1.00731
sS'hit'
p9
F-0.511615
sS'stand'
p10
F-0.383265
ssS'classification'
p11
(g10
F-0.383265
tp12
sS'dealer_card'
p13
g4
sb.(i__main__
DBEntry
p0
(dp1
S'player_cards'
p2
(lp3
S'6'
p4
aS'A'
p5
asS'rank'
p6
(dp7
S'double_down'
p8
F-0.01889
sS'hit'
p9
F-0.00699
sS'stand'
p10
F-0.10758
ssS'classification'
p11
(g9
F-0.00699
tp12
sS'dealer_card'
p13
S'7'
p14
sb.(i__main__
DBEntry
p0
(dp1
S'player_cards'
p2
(lp3
S'7'
p4
aS'10'
p5
asS'rank'
p6
(dp7
S'double_down'
p8
F-0.95927
sS'hit'
p9
F-0.48187
sS'stand'
p10
F-0.10565
ssS'classification'
p11
(g10
F-0.10565
tp12
sS'dealer_card'
p13
g4
sb.(i__main__
DBEntry
p0
(dp1
S'player_cards'
p2
(lp3
S'8'
p4
aS'9'
p5
asS'rank'
p6
(dp7
S'double_down'
p8
F-0.96363
sS'hit'
p9
F-0.481705
sS'stand'
p10
F-0.1052
ssS'classification'
p11
(g10
F-0.1052
tp12
sS'dealer_card'
p13
S'7'
p14
sb.(i__main__
DBEntry
p0
(dp1
S'player_cards'
p2
(lp3
S'6'
p4
aS'A'
p5
asS'rank'
p6
(dp7
S'double_down'
p8
F0.25821
sS'hit'
p9
F0.130565
sS'stand'
p10
F0.01488
ssS'classification'
p11
(g8
F0.25821
tp12
sS'dealer_card'
p13
g4
sb.(i__main__
DBEntry
p0
(dp1
S'player_cards'
p2
(lp3
S'7'
p4
aS'10'
p5
asS'rank'
p6
(dp7
S'double_down'
p8
F-1.01686
sS'hit'
p9
F-0.50931
sS'stand'
p10
F0.010115
ssS'classification'
p11
(g10
F0.010115
tp12
sS'dealer_card'
p13
S'6'
p14
sb.(i__main__
DBEntry
p0
(dp1
S'player_cards'
p2
(lp3
S'8'
p4
aS'9'
p5
asS'rank'
p6
(dp7
S'double_down'
p8
F-1.01846
sS'hit'
p9
F-0.51049
sS'stand'
p10
F0.009525
ssS'classification'
p11
(g10
F0.009525
tp12
sS'dealer_card'
p13
S'6'
p14
sb.(i__main__
DBEntry
p0
(dp1
S'player_cards'
p2
(lp3
S'6'
p4
aS'A'
p5
asS'rank'
p6
(dp7
S'double_down'
p8
F0.18461
sS'hit'
p9
F0.09318
sS'stand'
p10
F-0.045065
ssS'classification'
p11
(g8
F0.18461
tp12
sS'dealer_card'
p13
S'5'
p14
sb.(i__main__
DBEntry
p0
(dp1
S'player_cards'
p2
(lp3
S'7'
p4
aS'10'
p5
asS'rank'
p6
(dp7
S'double_down'
p8
F-1.04641
sS'hit'
p9
F-0.523025
sS'stand'
p10
F-0.041335
ssS'classification'
p11
(g10
F-0.041335
tp12
sS'dealer_card'
p13
S'5'
p14
sb.(i__main__
DBEntry
p0
(dp1
S'player_cards'
p2
(lp3
S'8'
p4
aS'9'
p5
asS'rank'
p6
(dp7
S'double_down'
p8
F-1.04786
sS'hit'
p9
F-0.524335
sS'stand'
p10
F-0.04606
ssS'classification'
p11
(g10
F-0.04606
tp12
sS'dealer_card'
p13
S'5'
p14
sb.(i__main__
DBEntry
p0
(dp1
S'player_cards'
p2
(lp3
S'6'
p4
aS'A'
p5
asS'rank'
p6
(dp7
S'double_down'
p8
F0.12383
sS'hit'
p9
F0.05887
sS'stand'
p10
F-0.081195
ssS'classification'
p11
(g8
F0.12383
tp12
sS'dealer_card'
p13
S'4'
p14
sb.(i__main__
DBEntry
p0
(dp1
S'player_cards'
p2
(lp3
S'7'
p4
aS'10'
p5
asS'rank'
p6
(dp7
S'double_down'
p8
F-1.05638
sS'hit'
p9
F-0.52382
sS'stand'
p10
F-0.07693
ssS'classification'
p11
(g10
F-0.07693
tp12
sS'dealer_card'
p13
S'4'
p14
sb.(i__main__
DBEntry
p0
(dp1
S'player_cards'
p2
(lp3
S'8'
p4
aS'9'
p5
asS'rank'
p6
(dp7
S'double_down'
p8
F-1.05666
sS'hit'
p9
F-0.52772
sS'stand'
p10
F-0.08043
ssS'classification'
p11
(g10
F-0.08043
tp12
sS'dealer_card'
p13
S'4'
p14
sb.(i__main__
DBEntry
p0
(dp1
S'player_cards'
p2
(lp3
S'6'
p4
aS'A'
p5
asS'rank'
p6
(dp7
S'double_down'
p8
F0.06535
sS'hit'
p9
F0.03054
sS'stand'
p10
F-0.11633
ssS'classification'
p11
(g8
F0.06535
tp12
sS'dealer_card'
p13
S'3'
p14
sb.(i__main__
DBEntry
p0
(dp1
S'player_cards'
p2
(lp3
S'7'
p4
aS'10'
p5
asS'rank'
p6
(dp7
S'double_down'
p8
F-1.06246
sS'hit'
p9
F-0.529485
sS'stand'
p10
F-0.1202
ssS'classification'
p11
(g10
F-0.1202
tp12
sS'dealer_card'
p13
S'3'
p14
sb.(i__main__
DBEntry
p0
(dp1
S'player_cards'
p2
(lp3
S'8'
p4
aS'9'
p5
asS'rank'
p6
(dp7
S'double_down'
p8
F-1.05986
sS'hit'
p9
F-0.530505
sS'stand'
p10
F-0.11594
ssS'classification'
p11
(g10
F-0.11594
tp12
sS'dealer_card'
p13
S'3'
p14
sb.(i__main__
DBEntry
p0
(dp1
S'player_cards'
p2
(lp3
S'6'
p4
aS'A'
p5
asS'rank'
p6
(dp7
S'double_down'
p8
F-0.00919
sS'hit'
p9
F-0.00374
sS'stand'
p10
F-0.154115
ssS'classification'
p11
(g9
F-0.00374
tp12
sS'dealer_card'
p13
S'2'
p14
sb.(i__main__
DBEntry
p0
(dp1
S'player_cards'
p2
(lp3
S'7'
p4
aS'10'
p5
asS'rank'
p6
(dp7
S'double_down'
p8
F-1.06945
sS'hit'
p9
F-0.53562
sS'stand'
p10
F-0.1532
ssS'classification'
p11
(g10
F-0.1532
tp12
sS'dealer_card'
p13
S'2'
p14
sb.(i__main__
DBEntry
p0
(dp1
S'player_cards'
p2
(lp3
S'8'
p4
aS'9'
p5
asS'rank'
p6
(dp7
S'double_down'
p8
F-1.0729
sS'hit'
p9
F-0.535975
sS'stand'
p10
F-0.153505
ssS'classification'
p11
(g10
F-0.153505
tp12
sS'dealer_card'
p13
S'2'
p14
sb.(i__main__
DBEntry
p0
(dp1
S'player_cards'
p2
(lp3
S'5'
p4
aS'A'
p5
asS'rank'
p6
(dp7
S'double_down'
p8
F-1.00209
sS'hit'
p9
F-0.499145
sS'stand'
p10
F-0.77086
ssS'classification'
p11
(g9
F-0.499145
tp12
sS'dealer_card'
p13
g5
sb.(i__main__
DBEntry
p0
(dp1
S'player_cards'
p2
(lp3
S'6'
p4
aS'10'
p5
asS'rank'
p6
(dp7
S'double_down'
p8
F-1.28295
sS'hit'
p9
F-0.64008
sS'stand'
p10
F-0.77106
ssS'classification'
p11
(g9
F-0.64008
tp12
sS'dealer_card'
p13
S'A'
p14
sb.(i__main__
DBEntry
p0
(dp1
S'player_cards'
p2
(lp3
S'7'
p4
aS'9'
p5
asS'rank'
p6
(dp7
S'double_down'
p8
F-1.28137
sS'hit'
p9
F-0.64289
sS'stand'
p10
F-0.76772
ssS'classification'
p11
(g9
F-0.64289
tp12
sS'dealer_card'
p13
S'A'
p14
sb.(i__main__
DBEntry
p0
(dp1
S'player_cards'
p2
(lp3
S'5'
p4
aS'A'
p5
asS'rank'
p6
(dp7
S'double_down'
p8
F-0.61857
sS'hit'
p9
F-0.310715
sS'stand'
p10
F-0.57774
ssS'classification'
p11
(g9
F-0.310715
tp12
sS'dealer_card'
p13
S'10'
p14
sb.(i__main__
DBEntry
p0
(dp1
S'player_cards'
p2
(lp3
S'6'
p4
aS'10'
p5
asS'rank'
p6
(dp7
S'double_down'
p8
F-1.13351
sS'hit'
p9
F-0.568435
sS'stand'
p10
F-0.57545
ssS'classification'
p11
(g9
F-0.568435
tp12
sS'dealer_card'
p13
g5
sb.(i__main__
DBEntry
p0
(dp1
S'player_cards'
p2
(lp3
S'7'
p4
aS'9'
p5
asS'rank'
p6
(dp7
S'double_down'
p8
F-1.1343
sS'hit'
p9
F-0.56958
sS'stand'
p10
F-0.57336
ssS'classification'
p11
(g9
F-0.56958
tp12
sS'dealer_card'
p13
S'10'
p14
sb.(i__main__
DBEntry
p0
(dp1
S'player_cards'
p2
(lp3
S'5'
p4
aS'A'
p5
asS'rank'
p6
(dp7
S'double_down'
p8
F-0.45971
sS'hit'
p9
F-0.225575
sS'stand'
p10
F-0.54149
ssS'classification'
p11
(g9
F-0.225575
tp12
sS'dealer_card'
p13
S'9'
p14
sb.(i__main__
DBEntry
p0
(dp1
S'player_cards'
p2
(lp3
S'6'
p4
aS'10'
p5
asS'rank'
p6
(dp7
S'double_down'
p8
F-1.01932
sS'hit'
p9
F-0.50741
sS'stand'
p10
F-0.54151
ssS'classification'
p11
(g9
F-0.50741
tp12
sS'dealer_card'
p13
S'9'
p14
sb.(i__main__
DBEntry
p0
(dp1
S'player_cards'
p2
(lp3
S'7'
p4
aS'9'
p5
asS'rank'
p6
(dp7
S'double_down'
p8
F-1.02108
sS'hit'
p9
F-0.51144
sS'stand'
p10
F-0.54459
ssS'classification'
p11
(g9
F-0.51144
tp12
sS'dealer_card'
p13
g5
sb.(i__main__
DBEntry
p0
(dp1
S'player_cards'
p2
(lp3
S'5'
p4
aS'A'
p5
asS'rank'
p6
(dp7
S'double_down'
p8
F-0.31551
sS'hit'
p9
F-0.160535
sS'stand'
p10
F-0.50966
ssS'classification'
p11
(g9
F-0.160535
tp12
sS'dealer_card'
p13
S'8'
p14
sb.(i__main__
DBEntry
p0
(dp1
S'player_cards'
p2
(lp3
S'6'
p4
aS'10'
p5
asS'rank'
p6
(dp7
S'double_down'
p8
F-0.91244
sS'hit'
p9
F-0.454315
sS'stand'
p10
F-0.51304
ssS'classification'
p11
(g9
F-0.454315
tp12
sS'dealer_card'
p13
S'8'
p14
sb.(i__main__
DBEntry
p0
(dp1
S'player_cards'
p2
(lp3
S'7'
p4
aS'9'
p5
asS'rank'
p6
(dp7
S'double_down'
p8
F-0.9089
sS'hit'
p9
F-0.459105
sS'stand'
p10
F-0.50939
ssS'classification'
p11
(g9
F-0.459105
tp12
sS'dealer_card'
p13
S'8'
p14
sb.(i__main__
DBEntry
p0
(dp1
S'player_cards'
p2
(lp3
S'5'
p4
aS'A'
p5
asS'rank'
p6
(dp7
S'double_down'
p8
F-0.18184
sS'hit'
p9
F-0.093905
sS'stand'
p10
F-0.47804
ssS'classification'
p11
(g9
F-0.093905
tp12
sS'dealer_card'
p13
S'7'
p14
sb.(i__main__
DBEntry
p0
(dp1
S'player_cards'
p2
(lp3
S'6'
p4
aS'10'
p5
asS'rank'
p6
(dp7
S'double_down'
p8
F-0.8261
sS'hit'
p9
F-0.41364
sS'stand'
p10
F-0.47138
ssS'classification'
p11
(g9
F-0.41364
tp12
sS'dealer_card'
p13
S'7'
p14
sb.(i__main__
DBEntry
p0
(dp1
S'player_cards'
p2
(lp3
S'7'
p4
aS'9'
p5
asS'rank'
p6
(dp7
S'double_down'
p8
F-0.8303
sS'hit'
p9
F-0.4109
sS'stand'
p10
F-0.47365
ssS'classification'
p11
(g9
F-0.4109
tp12
sS'dealer_card'
p13
g4
sb.(i__main__
DBEntry
p0
(dp1
S'player_cards'
p2
(lp3
S'5'
p4
aS'A'
p5
asS'rank'
p6
(dp7
S'double_down'
p8
F0.17496
sS'hit'
p9
F0.0915
sS'stand'
p10
F-0.15475
ssS'classification'
p11
(g8
F0.17496
tp12
sS'dealer_card'
p13
S'6'
p14
sb.(i__main__
DBEntry
p0
(dp1
S'player_cards'
p2
(lp3
S'6'
p4
aS'10'
p5
asS'rank'
p6
(dp7
S'double_down'
p8
F-0.85899
sS'hit'
p9
F-0.43032
sS'stand'
p10
F-0.15517
ssS'classification'
p11
(g10
F-0.15517
tp12
sS'dealer_card'
p13
g4
sb.(i__main__
DBEntry
p0
(dp1
S'player_cards'
p2
(lp3
S'7'
p4
aS'9'
p5
asS'rank'
p6
(dp7
S'double_down'
p8
F-0.86135
sS'hit'
p9
F-0.43186
sS'stand'
p10
F-0.15163
ssS'classification'
p11
(g10
F-0.15163
tp12
sS'dealer_card'
p13
S'6'
p14
sb.(i__main__
DBEntry
p0
(dp1
S'player_cards'
p2
(lp3
S'5'
p4
aS'A'
p5
asS'rank'
p6
(dp7
S'double_down'
p8
F0.13031
sS'hit'
p9
F0.06281
sS'stand'
p10
F-0.16757
ssS'classification'
p11
(g8
F0.13031
tp12
sS'dealer_card'
p13
g4
sb.(i__main__
DBEntry
p0
(dp1
S'player_cards'
p2
(lp3
S'6'
p4
aS'10'
p5
asS'rank'
p6
(dp7
S'double_down'
p8
F-0.89843
sS'hit'
p9
F-0.44858
sS'stand'
p10
F-0.16379
ssS'classification'
p11
(g10
F-0.16379
tp12
sS'dealer_card'
p13
S'5'
p14
sb.(i__main__
DBEntry
p0
(dp1
S'player_cards'
p2
(lp3
S'7'
p4
aS'9'
p5
asS'rank'
p6
(dp7
S'double_down'
p8
F-0.89973
sS'hit'
p9
F-0.4515
sS'stand'
p10
F-0.1691
ssS'classification'
p11
(g10
F-0.1691
tp12
sS'dealer_card'
p13
S'5'
p14
sb.(i__main__
DBEntry
p0
(dp1
S'player_cards'
p2
(lp3
S'5'
p4
aS'A'
p5
asS'rank'
p6
(dp7
S'double_down'
p8
F0.05015
sS'hit'
p9
F0.03106
sS'stand'
p10
F-0.21198
ssS'classification'
p11
(g8
F0.05015
tp12
sS'dealer_card'
p13
S'4'
p14
sb.(i__main__
DBEntry
p0
(dp1
S'player_cards'
p2
(lp3
S'6'
p4
aS'10'
p5
asS'rank'
p6
(dp7
S'double_down'
p8
F-0.91506
sS'hit'
p9
F-0.455645
sS'stand'
p10
F-0.20936
ssS'classification'
p11
(g10
F-0.20936
tp12
sS'dealer_card'
p13
S'4'
p14
sb.(i__main__
DBEntry
p0
(dp1
S'player_cards'
p2
(lp3
S'7'
p4
aS'9'
p5
asS'rank'
p6
(dp7
S'double_down'
p8
F-0.91
sS'hit'
p9
F-0.458675
sS'stand'
p10
F-0.21047
ssS'classification'
p11
(g10
F-0.21047
tp12
sS'dealer_card'
p13
S'4'
p14
sb.(i__main__
DBEntry
p0
(dp1
S'player_cards'
p2
(lp3
S'5'
p4
aS'A'
p5
asS'rank'
p6
(dp7
S'double_down'
p8
F-0.01189
sS'hit'
p9
F-0.00214
sS'stand'
p10
F-0.24894
ssS'classification'
p11
(g9
F-0.00214
tp12
sS'dealer_card'
p13
S'3'
p14
sb.(i__main__
DBEntry
p0
(dp1
S'player_cards'
p2
(lp3
S'6'
p4
aS'10'
p5
asS'rank'
p6
(dp7
S'double_down'
p8
F-0.92836
sS'hit'
p9
F-0.4635
sS'stand'
p10
F-0.24773
ssS'classification'
p11
(g10
F-0.24773
tp12
sS'dealer_card'
p13
S'3'
p14
sb.(i__main__
DBEntry
p0
(dp1
S'player_cards'
p2
(lp3
S'7'
p4
aS'9'
p5
asS'rank'
p6
(dp7
S'double_down'
p8
F-0.92561
sS'hit'
p9
F-0.46363
sS'stand'
p10
F-0.25141
ssS'classification'
p11
(g10
F-0.25141
tp12
sS'dealer_card'
p13
S'3'
p14
sb.(i__main__
DBEntry
p0
(dp1
S'player_cards'
p2
(lp3
S'5'
p4
aS'A'
p5
asS'rank'
p6
(dp7
S'double_down'
p8
F-0.06849
sS'hit'
p9
F-0.03716
sS'stand'
p10
F-0.29236
ssS'classification'
p11
(g9
F-0.03716
tp12
sS'dealer_card'
p13
S'2'
p14
sb.(i__main__
DBEntry
p0
(dp1
S'player_cards'
p2
(lp3
S'6'
p4
aS'10'
p5
asS'rank'
p6
(dp7
S'double_down'
p8
F-0.93567
sS'hit'
p9
F-0.470755
sS'stand'
p10
F-0.29149
ssS'classification'
p11
(g10
F-0.29149
tp12
sS'dealer_card'
p13
S'2'
p14
sb.(i__main__
DBEntry
p0
(dp1
S'player_cards'
p2
(lp3
S'7'
p4
aS'9'
p5
asS'rank'
p6
(dp7
S'double_down'
p8
F-0.94419
sS'hit'
p9
F-0.470235
sS'stand'
p10
F-0.28909
ssS'classification'
p11
(g10
F-0.28909
tp12
sS'dealer_card'
p13
S'2'
p14
sb.(i__main__
DBEntry
p0
(dp1
S'player_cards'
p2
(lp3
S'4'
p4
aS'A'
p5
asS'rank'
p6
(dp7
S'double_down'
p8
F-0.99887
sS'hit'
p9
F-0.47807
sS'stand'
p10
F-0.7725
ssS'classification'
p11
(g9
F-0.47807
tp12
sS'dealer_card'
p13
g5
sb.(i__main__
DBEntry
p0
(dp1
S'player_cards'
p2
(lp3
S'5'
p4
aS'10'
p5
asS'rank'
p6
(dp7
S'double_down'
p8
F-1.24779
sS'hit'
p9
F-0.61492
sS'stand'
p10
F-0.76976
ssS'classification'
p11
(g9
F-0.61492
tp12
sS'dealer_card'
p13
S'A'
p14
sb.(i__main__
DBEntry
p0
(dp1
S'player_cards'
p2
(lp3
S'6'
p4
aS'9'
p5
asS'rank'
p6
(dp7
S'double_down'
p8
F-1.25152
sS'hit'
p9
F-0.6155
sS'stand'
p10
F-0.76723
ssS'classification'
p11
(g9
F-0.6155
tp12
sS'dealer_card'
p13
S'A'
p14
sb.(i__main__
DBEntry
p0
(dp1
S'player_cards'
p2
(lp3
S'7'
p4
aS'8'
p5
asS'rank'
p6
(dp7
S'double_down'
p8
F-1.24626
sS'hit'
p9
F-0.615905
sS'stand'
p10
F-0.76888
ssS'classification'
p11
(g9
F-0.615905
tp12
sS'dealer_card'
p13
S'A'
p14
sb.(i__main__
DBEntry
p0
(dp1
S'player_cards'
p2
(lp3
S'4'
p4
aS'A'
p5
asS'rank'
p6
(dp7
S'double_down'
p8
F-0.61336
sS'hit'
p9
F-0.28478
sS'stand'
p10
F-0.57388
ssS'classification'
p11
(g9
F-0.28478
tp12
sS'dealer_card'
p13
S'10'
p14
sb.(i__main__
DBEntry
p0
(dp1
S'player_cards'
p2
(lp3
S'5'
p4
aS'10'
p5
asS'rank'
p6
(dp7
S'double_down'
p8
F-1.07169
sS'hit'
p9
F-0.537535
sS'stand'
p10
F-0.57428
ssS'classification'
p11
(g9
F-0.537535
tp12
sS'dealer_card'
p13
g5
sb.(i__main__
DBEntry
p0
(dp1
S'player_cards'
p2
(lp3
S'6'
p4
aS'9'
p5
asS'rank'
p6
(dp7
S'double_down'
p8
F-1.07508
sS'hit'
p9
F-0.534825
sS'stand'
p10
F-0.5744
ssS'classification'
p11
(g9
F-0.534825
tp12
sS'dealer_card'
p13
S'10'
p14
sb.(i__main__
DBEntry
p0
(dp1
S'player_cards'
p2
(lp3
S'7'
p4
aS'8'
p5
asS'rank'
p6
(dp7
S'double_down'
p8
F-1.07247
sS'hit'
p9
F-0.534635
sS'stand'
p10
F-0.57558
ssS'classification'
p11
(g9
F-0.534635
tp12
sS'dealer_card'
p13
S'10'
p14
sb.(i__main__
DBEntry
p0
(dp1
S'player_cards'
p2
(lp3
S'4'
p4
aS'A'
p5
asS'rank'
p6
(dp7
S'double_down'
p8
F-0.45689
sS'hit'
p9
F-0.20056
sS'stand'
p10
F-0.54771
ssS'classification'
p11
(g9
F-0.20056
tp12
sS'dealer_card'
p13
S'9'
p14
sb.(i__main__
DBEntry
p0
(dp1
S'player_cards'
p2
(lp3
S'5'
p4
aS'10'
p5
asS'rank'
p6
(dp7
S'double_down'
p8
F-0.94845
sS'hit'
p9
F-0.476125
sS'stand'
p10
F-0.54202
ssS'classification'
p11
(g9
F-0.476125
tp12
sS'dealer_card'
p13
S'9'
p14
sb.(i__main__
DBEntry
p0
(dp1
S'player_cards'
p2
(lp3
S'6'
p4
aS'9'
p5
asS'rank'
p6
(dp7
S'double_down'
p8
F-0.94049
sS'hit'
p9
F-0.47191
sS'stand'
p10
F-0.54542
ssS'classification'
p11
(g9
F-0.47191
tp12
sS'dealer_card'
p13
g5
sb.(i__main__
DBEntry
p0
(dp1
S'player_cards'
p2
(lp3
S'7'
p4
aS'8'
p5
asS'rank'
p6
(dp7
S'double_down'
p8
F-0.9463
sS'hit'
p9
F-0.47426
sS'stand'
p10
F-0.54387
ssS'classification'
p11
(g9
F-0.47426
tp12
sS'dealer_card'
p13
S'9'
p14
sb.(i__main__
DBEntry
p0
(dp1
S'player_cards'
p2
(lp3
S'4'
p4
aS'A'
p5
asS'rank'
p6
(dp7
S'double_down'
p8
F-0.31655
sS'hit'
p9
F-0.130395
sS'stand'
p10
F-0.51173
ssS'classification'
p11
(g9
F-0.130395
tp12
sS'dealer_card'
p13
S'8'
p14
sb.(i__main__
DBEntry
p0
(dp1
S'player_cards'
p2
(lp3
S'5'
p4
aS'10'
p5
asS'rank'
p6
(dp7
S'double_down'
p8
F-0.84178
sS'hit'
p9
F-0.417695
sS'stand'
p10
F-0.50915
ssS'classification'
p11
(g9
F-0.417695
tp12
sS'dealer_card'
p13
S'8'
p14
sb.(i__main__
DBEntry
p0
(dp1
S'player_cards'
p2
(lp3
S'6'
p4
aS'9'
p5
asS'rank'
p6
(dp7
S'double_down'
p8
F-0.84355
sS'hit'
p9
F-0.41524
sS'stand'
p10
F-0.51404
ssS'classification'
p11
(g9
F-0.41524
tp12
sS'dealer_card'
p13
S'8'
p14
sb.(i__main__
DBEntry
p0
(dp1
S'player_cards'
p2
(lp3
S'7'
p4
aS'8'
p5
asS'rank'
p6
(dp7
S'double_down'
p8
F-0.8331
sS'hit'
p9
F-0.41643
sS'stand'
p10
F-0.51071
ssS'classification'
p11
(g9
F-0.41643
tp12
sS'dealer_card'
p13
g5
sb.(i__main__
DBEntry
p0
(dp1
S'player_cards'
p2
(lp3
S'4'
p4
aS'A'
p5
asS'rank'
p6
(dp7
S'double_down'
p8
F-0.18405
sS'hit'
p9
F-0.062605
sS'stand'
p10
F-0.47651
ssS'classification'
p11
(g9
F-0.062605
tp12
sS'dealer_card'
p13
S'7'
p14
sb.(i__main__
DBEntry
p0
(dp1
S'player_cards'
p2
(lp3
S'5'
p4
aS'10'
p5
asS'rank'
p6
(dp7
S'double_down'
p8
F-0.7415
sS'hit'
p9
F-0.37236
sS'stand'
p10
F-0.47814
ssS'classification'
p11
(g9
F-0.37236
tp12
sS'dealer_card'
p13
S'7'
p14
sb.(i__main__
DBEntry
p0
(dp1
S'player_cards'
p2
(lp3
S'6'
p4
aS'9'
p5
asS'rank'
p6
(dp7
S'double_down'
p8
F-0.75403
sS'hit'
p9
F-0.37112
sS'stand'
p10
F-0.47434
ssS'classification'
p11
(g9
F-0.37112
tp12
sS'dealer_card'
p13
S'7'
p14
sb.(i__main__
DBEntry
p0
(dp1
S'player_cards'
p2
(lp3
S'7'
p4
aS'8'
p5
asS'rank'
p6
(dp7
S'double_down'
p8
F-0.74772
sS'hit'
p9
F-0.36626
sS'stand'
p10
F-0.47566
ssS'classification'
p11
(g9
F-0.36626
tp12
sS'dealer_card'
p13
g4
sb.(i__main__
DBEntry
p0
(dp1
S'player_cards'
p2
(lp3
S'4'
p4
aS'A'
p5
asS'rank'
p6
(dp7
S'double_down'
p8
F0.17996
sS'hit'
p9
F0.087475
sS'stand'
p10
F-0.15228
ssS'classification'
p11
(g8
F0.17996
tp12
sS'dealer_card'
p13
S'6'
p14
sb.(i__main__
DBEntry
p0
(dp1
S'player_cards'
p2
(lp3
S'5'
p4
aS'10'
p5
asS'rank'
p6
(dp7
S'double_down'
p8
F-0.73661
sS'hit'
p9
F-0.366845
sS'stand'
p10
F-0.1539
ssS'classification'
p11
(g10
F-0.1539
tp12
sS'dealer_card'
p13
S'6'
p14
sb.(i__main__
DBEntry
p0
(dp1
S'player_cards'
p2
(lp3
S'6'
p4
aS'9'
p5
asS'rank'
p6
(dp7
S'double_down'
p8
F-0.72919
sS'hit'
p9
F-0.3655
sS'stand'
p10
F-0.15153
ssS'classification'
p11
(g10
F-0.15153
tp12
sS'dealer_card'
p13
g4
sb.(i__main__
DBEntry
p0
(dp1
S'player_cards'
p2
(lp3
S'7'
p4
aS'8'
p5
asS'rank'
p6
(dp7
S'double_down'
p8
F-0.73264
sS'hit'
p9
F-0.365205
sS'stand'
p10
F-0.15367
ssS'classification'
p11
(g10
F-0.15367
tp12
sS'dealer_card'
p13
S'6'
p14
sb.(i__main__
DBEntry
p0
(dp1
S'player_cards'
p2
(lp3
S'4'
p4
aS'A'
p5
asS'rank'
p6
(dp7
S'double_down'
p8
F0.12112
sS'hit'
p9
F0.06277
sS'stand'
p10
F-0.1663
ssS'classification'
p11
(g8
F0.12112
tp12
sS'dealer_card'
p13
S'5'
p14
sb.(i__main__
DBEntry
p0
(dp1
S'player_cards'
p2
(lp3
S'5'
p4
aS'10'
p5
asS'rank'
p6
(dp7
S'double_down'
p8
F-0.76752
sS'hit'
p9
F-0.384935
sS'stand'
p10
F-0.16639
ssS'classification'
p11
(g10
F-0.16639
tp12
sS'dealer_card'
p13
g4
sb.(i__main__
DBEntry
p0
(dp1
S'player_cards'
p2
(lp3
S'6'
p4
aS'9'
p5
asS'rank'
p6
(dp7
S'double_down'
p8
F-0.76725
sS'hit'
p9
F-0.38661
sS'stand'
p10
F-0.16741
ssS'classification'
p11
(g10
F-0.16741
tp12
sS'dealer_card'
p13
S'5'
p14
sb.(i__main__
DBEntry
p0
(dp1
S'player_cards'
p2
(lp3
S'7'
p4
aS'8'
p5
asS'rank'
p6
(dp7
S'double_down'
p8
F-0.77047
sS'hit'
p9
F-0.385435
sS'stand'
p10
F-0.16991
ssS'classification'
p11
(g10
F-0.16991
tp12
sS'dealer_card'
p13
S'5'
p14
sb.(i__main__
DBEntry
p0
(dp1
S'player_cards'
p2
(lp3
S'4'
p4
aS'A'
p5
asS'rank'
p6
(dp7
S'double_down'
p8
F0.05954
sS'hit'
p9
F0.02969
sS'stand'
p10
F-0.21347
ssS'classification'
p11
(g8
F0.05954
tp12
sS'dealer_card'
p13
g4
sb.(i__main__
DBEntry
p0
(dp1
S'player_cards'
p2
(lp3
S'5'
p4
aS'10'
p5
asS'rank'
p6
(dp7
S'double_down'
p8
F-0.79413
sS'hit'
p9
F-0.393575
sS'stand'
p10
F-0.21367
ssS'classification'
p11
(g10
F-0.21367
tp12
sS'dealer_card'
p13
S'4'
p14
sb.(i__main__
DBEntry
p0
(dp1
S'player_cards'
p2
(lp3
S'6'
p4
aS'9'
p5
asS'rank'
p6
(dp7
S'double_down'
p8
F-0.79918
sS'hit'
p9
F-0.39288
sS'stand'
p10
F-0.21019
ssS'classification'
p11
(g10
F-0.21019
tp12
sS'dealer_card'
p13
S'4'
p14
sb.(i__main__
DBEntry
p0
(dp1
S'player_cards'
p2
(lp3
S'7'
p4
aS'8'
p5
asS'rank'
p6
(dp7
S'double_down'
p8
F-0.79793
sS'hit'
p9
F-0.398015
sS'stand'
p10
F-0.20978
ssS'classification'
p11
(g10
F-0.20978
tp12
sS'dealer_card'
p13
S'4'
p14
sb.(i__main__
DBEntry
p0
(dp1
S'player_cards'
p2
(lp3
S'4'
p4
aS'A'
p5
asS'rank'
p6
(dp7
S'double_down'
p8
F-0.00295
sS'hit'
p9
F-0.00052
sS'stand'
p10
F-0.24965
ssS'classification'
p11
(g9
F-0.00052
tp12
sS'dealer_card'
p13
S'3'
p14
sb.(i__main__
DBEntry
p0
(dp1
S'player_cards'
p2
(lp3
S'5'
p4
aS'10'
p5
asS'rank'
p6
(dp7
S'double_down'
p8
F-0.79873
sS'hit'
p9
F-0.406985
sS'stand'
p10
F-0.25428
ssS'classification'
p11
(g10
F-0.25428
tp12
sS'dealer_card'
p13
S'3'
p14
sb.(i__main__
DBEntry
p0
(dp1
S'player_cards'
p2
(lp3
S'6'
p4
aS'9'
p5
asS'rank'
p6
(dp7
S'double_down'
p8
F-0.81639
sS'hit'
p9
F-0.40874
sS'stand'
p10
F-0.25516
ssS'classification'
p11
(g10
F-0.25516
tp12
sS'dealer_card'
p13
S'3'
p14
sb.(i__main__
DBEntry
p0
(dp1
S'player_cards'
p2
(lp3
S'7'
p4
aS'8'
p5
asS'rank'
p6
(dp7
S'double_down'
p8
F-0.80456
sS'hit'
p9
F-0.410295
sS'stand'
p10
F-0.25002
ssS'classification'
p11
(g10
F-0.25002
tp12
sS'dealer_card'
p13
S'3'
p14
sb.(i__main__
DBEntry
p0
(dp1
S'player_cards'
p2
(lp3
S'4'
p4
aS'A'
p5
asS'rank'
p6
(dp7
S'double_down'
p8
F-0.07108
sS'hit'
p9
F-0.034035
sS'stand'
p10
F-0.29104
ssS'classification'
p11
(g9
F-0.034035
tp12
sS'dealer_card'
p13
S'2'
p14
sb.(i__main__
DBEntry
p0
(dp1
S'player_cards'
p2
(lp3
S'5'
p4
aS'10'
p5
asS'rank'
p6
(dp7
S'double_down'
p8
F-0.83025
sS'hit'
p9
F-0.41695
sS'stand'
p10
F-0.29244
ssS'classification'
p11
(g10
F-0.29244
tp12
sS'dealer_card'
p13
S'2'
p14
sb.(i__main__
DBEntry
p0
(dp1
S'player_cards'
p2
(lp3
S'6'
p4
aS'9'
p5
asS'rank'
p6
(dp7
S'double_down'
p8
F-0.83092
sS'hit'
p9
F-0.417825
sS'stand'
p10
F-0.29153
ssS'classification'
p11
(g10
F-0.29153
tp12
sS'dealer_card'
p13
S'2'
p14
sb.(i__main__
DBEntry
p0
(dp1
S'player_cards'
p2
(lp3
S'7'
p4
aS'8'
p5
asS'rank'
p6
(dp7
S'double_down'
p8
F-0.83733
sS'hit'
p9
F-0.415715
sS'stand'
p10
F-0.29417
ssS'classification'
p11
(g10
F-0.29417
tp12
sS'dealer_card'
p13
S'2'
p14
sb.(i__main__
DBEntry
p0
(dp1
S'player_cards'
p2
(lp3
S'3'
p4
aS'A'
p5
asS'rank'
p6
(dp7
S'double_down'
p8
F-0.99956
sS'hit'
p9
F-0.451325
sS'stand'
p10
F-0.7715
ssS'classification'
p11
(g9
F-0.451325
tp12
sS'dealer_card'
p13
g5
sb.(i__main__
DBEntry
p0
(dp1
S'player_cards'
p2
(lp3
S'4'
p4
aS'10'
p5
asS'rank'
p6
(dp7
S'double_down'
p8
F-1.21605
sS'hit'
p9
F-0.582335
sS'stand'
p10
F-0.77255
ssS'classification'
p11
(g9
F-0.582335
tp12
sS'dealer_card'
p13
S'A'
p14
sb.(i__main__
DBEntry
p0
(dp1
S'player_cards'
p2
(lp3
S'5'
p4
aS'9'
p5
asS'rank'
p6
(dp7
S'double_down'
p8
F-1.21247
sS'hit'
p9
F-0.58516
sS'stand'
p10
F-0.76918
ssS'classification'
p11
(g9
F-0.58516
tp12
sS'dealer_card'
p13
S'A'
p14
sb.(i__main__
DBEntry
p0
(dp1
S'player_cards'
p2
(lp3
S'6'
p4
aS'8'
p5
asS'rank'
p6
(dp7
S'double_down'
p8
F-1.21497
sS'hit'
p9
F-0.5847
sS'stand'
p10
F-0.7699
ssS'classification'
p11
(g9
F-0.5847
tp12
sS'dealer_card'
p13
S'A'
p14
sb.(i__main__
DBEntry
p0
(dp1
S'player_cards'
p2
(lp3
S'3'
p4
aS'A'
p5
asS'rank'
p6
(dp7
S'double_down'
p8
F-0.61331
sS'hit'
p9
F-0.267825
sS'stand'
p10
F-0.57519
ssS'classification'
p11
(g9
F-0.267825
tp12
sS'dealer_card'
p13
S'10'
p14
sb.(i__main__
DBEntry
p0
(dp1
S'player_cards'
p2
(lp3
S'4'
p4
aS'10'
p5
asS'rank'
p6
(dp7
S'double_down'
p8
F-1.00992
sS'hit'
p9
F-0.50151
sS'stand'
p10
F-0.57881
ssS'classification'
p11
(g9
F-0.50151
tp12
sS'dealer_card'
p13
g5
sb.(i__main__
DBEntry
p0
(dp1
S'player_cards'
p2
(lp3
S'5'
p4
aS'9'
p5
asS'rank'
p6
(dp7
S'double_down'
p8
F-1.00442
sS'hit'
p9
F-0.49951
sS'stand'
p10
F-0.57455
ssS'classification'
p11
(g9
F-0.49951
tp12
sS'dealer_card'
p13
S'10'
p14
sb.(i__main__
DBEntry
p0
(dp1
S'player_cards'
p2
(lp3
S'6'
p4
aS'8'
p5
asS'rank'
p6
(dp7
S'double_down'
p8
F-1.0086
sS'hit'
p9
F-0.49864
sS'stand'
p10
F-0.57332
ssS'classification'
p11
(g9
F-0.49864
tp12
sS'dealer_card'
p13
S'10'
p14
sb.(i__main__
DBEntry
p0
(dp1
S'player_cards'
p2
(lp3
S'3'
p4
aS'A'
p5
asS'rank'
p6
(dp7
S'double_down'
p8
F-0.45398
sS'hit'
p9
F-0.17512
sS'stand'
p10
F-0.5434
ssS'classification'
p11
(g9
F-0.17512
tp12
sS'dealer_card'
p13
S'9'
p14
sb.(i__main__
DBEntry
p0
(dp1
S'player_cards'
p2
(lp3
S'4'
p4
aS'10'
p5
asS'rank'
p6
(dp7
S'double_down'
p8
F-0.87556
sS'hit'
p9
F-0.429245
sS'stand'
p10
F-0.54358
ssS'classification'
p11
(g9
F-0.429245
tp12
sS'dealer_card'
p13
S'9'
p14
sb.(i__main__
DBEntry
p0
(dp1
S'player_cards'
p2
(lp3
S'5'
p4
aS'9'
p5
asS'rank'
p6
(dp7
S'double_down'
p8
F-0.87527
sS'hit'
p9
F-0.43023
sS'stand'
p10
F-0.54142
ssS'classification'
p11
(g9
F-0.43023
tp12
sS'dealer_card'
p13
g5
sb.(i__main__
DBEntry
p0
(dp1
S'player_cards'
p2
(lp3
S'6'
p4
aS'8'
p5
asS'rank'
p6
(dp7
S'double_down'
p8
F-0.87391
sS'hit'
p9
F-0.431215
sS'stand'
p10
F-0.54417
ssS'classification'
p11
(g9
F-0.431215
tp12
sS'dealer_card'
p13
S'9'
p14
sb.(i__main__
DBEntry
p0
(dp1
S'player_cards'
p2
(lp3
S'3'
p4
aS'A'
p5
asS'rank'
p6
(dp7
S'double_down'
p8
F-0.31657
sS'hit'
p9
F-0.095985
sS'stand'
p10
F-0.51084
ssS'classification'
p11
(g9
F-0.095985
tp12
sS'dealer_card'
p13
S'8'
p14
sb.(i__main__
DBEntry
p0
(dp1
S'player_cards'
p2
(lp3
S'4'
p4
aS'10'
p5
asS'rank'
p6
(dp7
S'double_down'
p8
F-0.77045
sS'hit'
p9
F-0.370005
sS'stand'
p10
F-0.51138
ssS'classification'
p11
(g9
F-0.370005
tp12
sS'dealer_card'
p13
S'8'
p14
sb.(i__main__
DBEntry
p0
(dp1
S'player_cards'
p2
(lp3
S'5'
p4
aS'9'
p5
asS'rank'
p6
(dp7
S'double_down'
p8
F-0.76497
sS'hit'
p9
F-0.375865
sS'stand'
p10
F-0.51088
ssS'classification'
p11
(g9
F-0.375865
tp12
sS'dealer_card'
p13
S'8'
p14
sb.(i__main__
DBEntry
p0
(dp1
S'player_cards'
p2
(lp3
S'6'
p4
aS'8'
p5
asS'rank'
p6
(dp7
S'double_down'
p8
F-0.76019
sS'hit'
p9
F-0.37475
sS'stand'
p10
F-0.51197
ssS'classification'
p11
(g9
F-0.37475
tp12
sS'dealer_card'
p13
g5
sb.(i__main__
DBEntry
p0
(dp1
S'player_cards'
p2
(lp3
S'3'
p4
aS'A'
p5
asS'rank'
p6
(dp7
S'double_down'
p8
F-0.18006
sS'hit'
p9
F-0.022585
sS'stand'
p10
F-0.47502
ssS'classification'
p11
(g9
F-0.022585
tp12
sS'dealer_card'
p13
S'7'
p14
sb.(i__main__
DBEntry
p0
(dp1
S'player_cards'
p2
(lp3
S'4'
p4
aS'10'
p5
asS'rank'
p6
(dp7
S'double_down'
p8
F-0.66954
sS'hit'
p9
F-0.324045
sS'stand'
p10
F-0.47723
ssS'classification'
p11
(g9
F-0.324045
tp12
sS'dealer_card'
p13
S'7'
p14
sb.(i__main__
DBEntry
p0
(dp1
S'player_cards'
p2
(lp3
S'5'
p4
aS'9'
p5
asS'rank'
p6
(dp7
S'double_down'
p8
F-0.66781
sS'hit'
p9
F-0.3214
sS'stand'
p10
F-0.47758
ssS'classification'
p11
(g9
F-0.3214
tp12
sS'dealer_card'
p13
S'7'
p14
sb.(i__main__
DBEntry
p0
(dp1
S'player_cards'
p2
(lp3
S'6'
p4
aS'8'
p5
asS'rank'
p6
(dp7
S'double_down'
p8
F-0.66469
sS'hit'
p9
F-0.32571
sS'stand'
p10
F-0.47568
ssS'classification'
p11
(g9
F-0.32571
tp12
sS'dealer_card'
p13
S'7'
p14
sb.(i__main__
DBEntry
p0
(dp1
S'player_cards'
p2
(lp3
S'3'
p4
aS'A'
p5
asS'rank'
p6
(dp7
S'double_down'
p8
F0.17668
sS'hit'
p9
F0.09183
sS'stand'
p10
F-0.15376
ssS'classification'
p11
(g8
F0.17668
tp12
sS'dealer_card'
p13
S'6'
p14
sb.(i__main__
DBEntry
p0
(dp1
S'player_cards'
p2
(lp3
S'4'
p4
aS'10'
p5
asS'rank'
p6
(dp7
S'double_down'
p8
F-0.60066
sS'hit'
p9
F-0.301645
sS'stand'
p10
F-0.15351
ssS'classification'
p11
(g10
F-0.15351
tp12
sS'dealer_card'
p13
S'6'
p14
sb.(i__main__
DBEntry
p0
(dp1
S'player_cards'
p2
(lp3
S'5'
p4
aS'9'
p5
asS'rank'
p6
(dp7
S'double_down'
p8
F-0.59793
sS'hit'
p9
F-0.30345
sS'stand'
p10
F-0.1551
ssS'classification'
p11
(g10
F-0.1551
tp12
sS'dealer_card'
p13
S'6'
p14
sb.(i__main__
DBEntry
p0
(dp1
S'player_cards'
p2
(lp3
S'6'
p4
aS'8'
p5
asS'rank'
p6
(dp7
S'double_down'
p8
F-0.60583
sS'hit'
p9
F-0.29965
sS'stand'
p10
F-0.15219
ssS'classification'
p11
(g10
F-0.15219
tp12
sS'dealer_card'
p13
g4
sb.(i__main__
DBEntry
p0
(dp1
S'player_cards'
p2
(lp3
S'3'
p4
aS'A'
p5
asS'rank'
p6
(dp7
S'double_down'
p8
F0.12907
sS'hit'
p9
F0.06395
sS'stand'
p10
F-0.16854
ssS'classification'
p11
(g8
F0.12907
tp12
sS'dealer_card'
p13
S'5'
p14
sb.(i__main__
DBEntry
p0
(dp1
S'player_cards'
p2
(lp3
S'4'
p4
aS'10'
p5
asS'rank'
p6
(dp7
S'double_down'
p8
F-0.64357
sS'hit'
p9
F-0.319335
sS'stand'
p10
F-0.16899
ssS'classification'
p11
(g10
F-0.16899
tp12
sS'dealer_card'
p13
S'5'
p14
sb.(i__main__
DBEntry
p0
(dp1
S'player_cards'
p2
(lp3
S'5'
p4
aS'9'
p5
asS'rank'
p6
(dp7
S'double_down'
p8
F-0.64864
sS'hit'
p9
F-0.322125
sS'stand'
p10
F-0.16363
ssS'classification'
p11
(g10
F-0.16363
tp12
sS'dealer_card'
p13
g4
sb.(i__main__
DBEntry
p0
(dp1
S'player_cards'
p2
(lp3
S'6'
p4
aS'8'
p5
asS'rank'
p6
(dp7
S'double_down'
p8
F-0.64485
sS'hit'
p9
F-0.32281
sS'stand'
p10
F-0.16759
ssS'classification'
p11
(g10
F-0.16759
tp12
sS'dealer_card'
p13
S'5'
p14
sb.(i__main__
DBEntry
p0
(dp1
S'player_cards'
p2
(lp3
S'3'
p4
aS'A'
p5
asS'rank'
p6
(dp7
S'double_down'
p8
F0.05816
sS'hit'
p9
F0.029075
sS'stand'
p10
F-0.20997
ssS'classification'
p11
(g8
F0.05816
tp12
sS'dealer_card'
p13
S'4'
p14
sb.(i__main__
DBEntry
p0
(dp1
S'player_cards'
p2
(lp3
S'4'
p4
aS'10'
p5
asS'rank'
p6
(dp7
S'double_down'
p8
F-0.67279
sS'hit'
p9
F-0.32878
sS'stand'
p10
F-0.20879
ssS'classification'
p11
(g10
F-0.20879
tp12
sS'dealer_card'
p13
g4
sb.(i__main__
DBEntry
p0
(dp1
S'player_cards'
p2
(lp3
S'5'
p4
aS'9'
p5
asS'rank'
p6
(dp7
S'double_down'
p8
F-0.66525
sS'hit'
p9
F-0.334665
sS'stand'
p10
F-0.20878
ssS'classification'
p11
(g10
F-0.20878
tp12
sS'dealer_card'
p13
S'4'
p14
sb.(i__main__
DBEntry
p0
(dp1
S'player_cards'
p2
(lp3
S'6'
p4
aS'8'
p5
asS'rank'
p6
(dp7
S'double_down'
p8
F-0.67486
sS'hit'
p9
F-0.33117
sS'stand'
p10
F-0.21188
ssS'classification'
p11
(g10
F-0.21188
tp12
sS'dealer_card'
p13
S'4'
p14
sb.(i__main__
DBEntry
p0
(dp1
S'player_cards'
p2
(lp3
S'3'
p4
aS'A'
p5
asS'rank'
p6
(dp7
S'double_down'
p8
F-0.00915
sS'hit'
p9
F-0.006535
sS'stand'
p10
F-0.25439
ssS'classification'
p11
(g9
F-0.006535
tp12
sS'dealer_card'
p13
g4
sb.(i__main__
DBEntry
p0
(dp1
S'player_cards'
p2
(lp3
S'4'
p4
aS'10'
p5
asS'rank'
p6
(dp7
S'double_down'
p8
F-0.69885
sS'hit'
p9
F-0.3496
sS'stand'
p10
F-0.2502
ssS'classification'
p11
(g10
F-0.2502
tp12
sS'dealer_card'
p13
S'3'
p14
sb.(i__main__
DBEntry
p0
(dp1
S'player_cards'
p2
(lp3
S'5'
p4
aS'9'
p5
asS'rank'
p6
(dp7
S'double_down'
p8
F-0.70354
sS'hit'
p9
F-0.35064
sS'stand'
p10
F-0.25439
ssS'classification'
p11
(g10
F-0.25439
tp12
sS'dealer_card'
p13
S'3'
p14
sb.(i__main__
DBEntry
p0
(dp1
S'player_cards'
p2
(lp3
S'6'
p4
aS'8'
p5
asS'rank'
p6
(dp7
S'double_down'
p8
F-0.69841
sS'hit'
p9
F-0.346485
sS'stand'
p10
F-0.24847
ssS'classification'
p11
(g10
F-0.24847
tp12
sS'dealer_card'
p13
S'3'
p14
sb.(i__main__
DBEntry
p0
(dp1
S'player_cards'
p2
(lp3
S'3'
p4
aS'A'
p5
asS'rank'
p6
(dp7
S'double_down'
p8
F-0.06788
sS'hit'
p9
F-0.03877
sS'stand'
p10
F-0.29458
ssS'classification'
p11
(g9
F-0.03877
tp12
sS'dealer_card'
p13
S'2'
p14
sb.(i__main__
DBEntry
p0
(dp1
S'player_cards'
p2
(lp3
S'4'
p4
aS'10'
p5
asS'rank'
p6
(dp7
S'double_down'
p8
F-0.72045
sS'hit'
p9
F-0.35873
sS'stand'
p10
F-0.29437
ssS'classification'
p11
(g10
F-0.29437
tp12
sS'dealer_card'
p13
S'2'
p14
sb.(i__main__
DBEntry
p0
(dp1
S'player_cards'
p2
(lp3
S'5'
p4
aS'9'
p5
asS'rank'
p6
(dp7
S'double_down'
p8
F-0.71964
sS'hit'
p9
F-0.362365
sS'stand'
p10
F-0.29485
ssS'classification'
p11
(g10
F-0.29485
tp12
sS'dealer_card'
p13
S'2'
p14
sb.(i__main__
DBEntry
p0
(dp1
S'player_cards'
p2
(lp3
S'6'
p4
aS'8'
p5
asS'rank'
p6
(dp7
S'double_down'
p8
F-0.72145
sS'hit'
p9
F-0.36183
sS'stand'
p10
F-0.28963
ssS'classification'
p11
(g10
F-0.28963
tp12
sS'dealer_card'
p13
S'2'
p14
sb.(i__main__
DBEntry
p0
(dp1
S'player_cards'
p2
(lp3
S'2'
p4
aS'A'
p5
asS'rank'
p6
(dp7
S'double_down'
p8
F-1.0055
sS'hit'
p9
F-0.41449
sS'stand'
p10
F-0.77097
ssS'classification'
p11
(g9
F-0.41449
tp12
sS'dealer_card'
p13
g5
sb.(i__main__
DBEntry
p0
(dp1
S'player_cards'
p2
(lp3
S'3'
p4
aS'10'
p5
asS'rank'
p6
(dp7
S'double_down'
p8
F-1.17982
sS'hit'
p9
F-0.553225
sS'stand'
p10
F-0.77051
ssS'classification'
p11
(g9
F-0.553225
tp12
sS'dealer_card'
p13
S'A'
p14
sb.(i__main__
DBEntry
p0
(dp1
S'player_cards'
p2
(lp3
S'4'
p4
aS'9'
p5
asS'rank'
p6
(dp7
S'double_down'
p8
F-1.17127
sS'hit'
p9
F-0.55114
sS'stand'
p10
F-0.76778
ssS'classification'
p11
(g9
F-0.55114
tp12
sS'dealer_card'
p13
S'A'
p14
sb.(i__main__
DBEntry
p0
(dp1
S'player_cards'
p2
(lp3
S'5'
p4
aS'8'
p5
asS'rank'
p6
(dp7
S'double_down'
p8
F-1.17599
sS'hit'
p9
F-0.55169
sS'stand'
p10
F-0.76889
ssS'classification'
p11
(g9
F-0.55169
tp12
sS'dealer_card'
p13
S'A'
p14
sb.(i__main__
DBEntry
p0
(dp1
S'player_cards'
p2
(lp3
S'6'
p4
aS'7'
p5
asS'rank'
p6
(dp7
S'double_down'
p8
F-1.18176
sS'hit'
p9
F-0.55148
sS'stand'
p10
F-0.77031
ssS'classification'
p11
(g9
F-0.55148
tp12
sS'dealer_card'
p13
S'A'
p14
sb.(i__main__
DBEntry
p0
(dp1
S'player_cards'
p2
(lp3
S'2'
p4
aS'A'
p5
asS'rank'
p6
(dp7
S'double_down'
p8
F-0.61849
sS'hit'
p9
F-0.24097
sS'stand'
p10
F-0.57643
ssS'classification'
p11
(g9
F-0.24097
tp12
sS'dealer_card'
p13
S'10'
p14
sb.(i__main__
DBEntry
p0
(dp1
S'player_cards'
p2
(lp3
S'3'
p4
aS'10'
p5
asS'rank'
p6
(dp7
S'double_down'
p8
F-0.93935
sS'hit'
p9
F-0.46138
sS'stand'
p10
F-0.57612
ssS'classification'
p11
(g9
F-0.46138
tp12
sS'dealer_card'
p13
g5
sb.(i__main__
DBEntry
p0
(dp1
S'player_cards'
p2
(lp3
S'4'
p4
aS'9'
p5
asS'rank'
p6
(dp7
S'double_down'
p8
F-0.94366
sS'hit'
p9
F-0.461645
sS'stand'
p10
F-0.57602
ssS'classification'
p11
(g9
F-0.461645
tp12
sS'dealer_card'
p13
S'10'
p14
sb.(i__main__
DBEntry
p0
(dp1
S'player_cards'
p2
(lp3
S'5'
p4
aS'8'
p5
asS'rank'
p6
(dp7
S'double_down'
p8
F-0.94787
sS'hit'
p9
F-0.464685
sS'stand'
p10
F-0.57617
ssS'classification'
p11
(g9
F-0.464685
tp12
sS'dealer_card'
p13
S'10'
p14
sb.(i__main__
DBEntry
p0
(dp1
S'player_cards'
p2
(lp3
S'6'
p4
aS'7'
p5
asS'rank'
p6
(dp7
S'double_down'
p8
F-0.93867
sS'hit'
p9
F-0.46259
sS'stand'
p10
F-0.57661
ssS'classification'
p11
(g9
F-0.46259
tp12
sS'dealer_card'
p13
S'10'
p14
sb.(i__main__
DBEntry
p0
(dp1
S'player_cards'
p2
(lp3
S'2'
p4
aS'A'
p5
asS'rank'
p6
(dp7
S'double_down'
p8
F-0.4525
sS'hit'
p9
F-0.14503
sS'stand'
p10
F-0.54267
ssS'classification'
p11
(g9
F-0.14503
tp12
sS'dealer_card'
p13
S'9'
p14
sb.(i__main__
DBEntry
p0
(dp1
S'player_cards'
p2
(lp3
S'3'
p4
aS'10'
p5
asS'rank'
p6
(dp7
S'double_down'
p8
F-0.8158
sS'hit'
p9
F-0.385175
sS'stand'
p10
F-0.54386
ssS'classification'
p11
(g9
F-0.385175
tp12
sS'dealer_card'
p13
S'9'
p14
sb.(i__main__
DBEntry
p0
(dp1
S'player_cards'
p2
(lp3
S'4'
p4
aS'9'
p5
asS'rank'
p6
(dp7
S'double_down'
p8
F-0.8157
sS'hit'
p9
F-0.3887
sS'stand'
p10
F-0.54322
ssS'classification'
p11
(g9
F-0.3887
tp12
sS'dealer_card'
p13
g5
sb.(i__main__
DBEntry
p0
(dp1
S'player_cards'
p2
(lp3
S'5'
p4
aS'8'
p5
asS'rank'
p6
(dp7
S'double_down'
p8
F-0.80952
sS'hit'
p9
F-0.39359
sS'stand'
p10
F-0.54249
ssS'classification'
p11
(g9
F-0.39359
tp12
sS'dealer_card'
p13
S'9'
p14
sb.(i__main__
DBEntry
p0
(dp1
S'player_cards'
p2
(lp3
S'6'
p4
aS'7'
p5
asS'rank'
p6
(dp7
S'double_down'
p8
F-0.80279
sS'hit'
p9
F-0.387045
sS'stand'
p10
F-0.54232
ssS'classification'
p11
(g9
F-0.387045
tp12
sS'dealer_card'
p13
S'9'
p14
sb.(i__main__
DBEntry
p0
(dp1
S'player_cards'
p2
(lp3
S'2'
p4
aS'A'
p5
asS'rank'
p6
(dp7
S'double_down'
p8
F-0.31421
sS'hit'
p9
F-0.06183
sS'stand'
p10
F-0.51209
ssS'classification'
p11
(g9
F-0.06183
tp12
sS'dealer_card'
p13
S'8'
p14
sb.(i__main__
DBEntry
p0
(dp1
S'player_cards'
p2
(lp3
S'3'
p4
aS'10'
p5
asS'rank'
p6
(dp7
S'double_down'
p8
F-0.69586
sS'hit'
p9
F-0.32372
sS'stand'
p10
F-0.51137
ssS'classification'
p11
(g9
F-0.32372
tp12
sS'dealer_card'
p13
S'8'
p14
sb.(i__main__
DBEntry
p0
(dp1
S'player_cards'
p2
(lp3
S'4'
p4
aS'9'
p5
asS'rank'
p6
(dp7
S'double_down'
p8
F-0.69355
sS'hit'
p9
F-0.325125
sS'stand'
p10
F-0.51248
ssS'classification'
p11
(g9
F-0.325125
tp12
sS'dealer_card'
p13
S'8'
p14
sb.(i__main__
DBEntry
p0
(dp1
S'player_cards'
p2
(lp3
S'5'
p4
aS'8'
p5
asS'rank'
p6
(dp7
S'double_down'
p8
F-0.68845
sS'hit'
p9
F-0.3261
sS'stand'
p10
F-0.51372
ssS'classification'
p11
(g9
F-0.3261
tp12
sS'dealer_card'
p13
g5
sb.(i__main__
DBEntry
p0
(dp1
S'player_cards'
p2
(lp3
S'6'
p4
aS'7'
p5
asS'rank'
p6
(dp7
S'double_down'
p8
F-0.68062
sS'hit'
p9
F-0.32519
sS'stand'
p10
F-0.50965
ssS'classification'
p11
(g9
F-0.32519
tp12
sS'dealer_card'
p13
S'8'
p14
sb.(i__main__
DBEntry
p0
(dp1
S'player_cards'
p2
(lp3
S'2'
p4
aS'A'
p5
asS'rank'
p6
(dp7
S'double_down'
p8
F-0.175
sS'hit'
p9
F0.01798
sS'stand'
p10
F-0.47657
ssS'classification'
p11
(g9
F0.01798
tp12
sS'dealer_card'
p13
S'7'
p14
sb.(i__main__
DBEntry
p0
(dp1
S'player_cards'
p2
(lp3
S'3'
p4
aS'10'
p5
asS'rank'
p6
(dp7
S'double_down'
p8
F-0.58832
sS'hit'
p9
F-0.26834
sS'stand'
p10
F-0.4777
ssS'classification'
p11
(g9
F-0.26834
tp12
sS'dealer_card'
p13
S'7'
p14
sb.(i__main__
DBEntry
p0
(dp1
S'player_cards'
p2
(lp3
S'4'
p4
aS'9'
p5
asS'rank'
p6
(dp7
S'double_down'
p8
F-0.58697
sS'hit'
p9
F-0.2667
sS'stand'
p10
F-0.47543
ssS'classification'
p11
(g9
F-0.2667
tp12
sS'dealer_card'
p13
S'7'
p14
sb.(i__main__
DBEntry
p0
(dp1
S'player_cards'
p2
(lp3
S'5'
p4
aS'8'
p5
asS'rank'
p6
(dp7
S'double_down'
p8
F-0.58473
sS'hit'
p9
F-0.26696
sS'stand'
p10
F-0.47632
ssS'classification'
p11
(g9
F-0.26696
tp12
sS'dealer_card'
p13
S'7'
p14
sb.(i__main__
DBEntry
p0
(dp1
S'player_cards'
p2
(lp3
S'6'
p4
aS'7'
p5
asS'rank'
p6
(dp7
S'double_down'
p8
F-0.58069
sS'hit'
p9
F-0.27216
sS'stand'
p10
F-0.47534
ssS'classification'
p11
(g9
F-0.27216
tp12
sS'dealer_card'
p13
g5
sb.(i__main__
DBEntry
p0
(dp1
S'player_cards'
p2
(lp3
S'2'
p4
aS'A'
p5
asS'rank'
p6
(dp7
S'double_down'
p8
F0.18358
sS'hit'
p9
F0.087765
sS'stand'
p10
F-0.15648
ssS'classification'
p11
(g8
F0.18358
tp12
sS'dealer_card'
p13
S'6'
p14
sb.(i__main__
DBEntry
p0
(dp1
S'player_cards'
p2
(lp3
S'3'
p4
aS'10'
p5
asS'rank'
p6
(dp7
S'double_down'
p8
F-0.47244
sS'hit'
p9
F-0.23497
sS'stand'
p10
F-0.15063
ssS'classification'
p11
(g10
F-0.15063
tp12
sS'dealer_card'
p13
S'6'
p14
sb.(i__main__
DBEntry
p0
(dp1
S'player_cards'
p2
(lp3
S'4'
p4
aS'9'
p5
asS'rank'
p6
(dp7
S'double_down'
p8
F-0.47381
sS'hit'
p9
F-0.23214
sS'stand'
p10
F-0.15771
ssS'classification'
p11
(g10
F-0.15771
tp12
sS'dealer_card'
p13
S'6'
p14
sb.(i__main__
DBEntry
p0
(dp1
S'player_cards'
p2
(lp3
S'5'
p4
aS'8'
p5
asS'rank'
p6
(dp7
S'double_down'
p8
F-0.47661
sS'hit'
p9
F-0.23628
sS'stand'
p10
F-0.15547
ssS'classification'
p11
(g10
F-0.15547
tp12
sS'dealer_card'
p13
S'6'
p14
sb.(i__main__
DBEntry
p0
(dp1
S'player_cards'
p2
(lp3
S'6'
p4
aS'7'
p5
asS'rank'
p6
(dp7
S'double_down'
p8
F-0.47448
sS'hit'
p9
F-0.232375
sS'stand'
p10
F-0.15336
ssS'classification'
p11
(g10
F-0.15336
tp12
sS'dealer_card'
p13
g4
sb.(i__main__
DBEntry
p0
(dp1
S'player_cards'
p2
(lp3
S'2'
p4
aS'A'
p5
asS'rank'
p6
(dp7
S'double_down'
p8
F0.13314
sS'hit'
p9
F0.06447
sS'stand'
p10
F-0.166
ssS'classification'
p11
(g8
F0.13314
tp12
sS'dealer_card'
p13
S'5'
p14
sb.(i__main__
DBEntry
p0
(dp1
S'player_cards'
p2
(lp3
S'3'
p4
aS'10'
p5
asS'rank'
p6
(dp7
S'double_down'
p8
F-0.515
sS'hit'
p9
F-0.25858
sS'stand'
p10
F-0.16816
ssS'classification'
p11
(g10
F-0.16816
tp12
sS'dealer_card'
p13
S'5'
p14
sb.(i__main__
DBEntry
p0
(dp1
S'player_cards'
p2
(lp3
S'4'
p4
aS'9'
p5
asS'rank'
p6
(dp7
S'double_down'
p8
F-0.51319
sS'hit'
p9
F-0.255675
sS'stand'
p10
F-0.1694
ssS'classification'
p11
(g10
F-0.1694
tp12
sS'dealer_card'
p13
S'5'
p14
sb.(i__main__
DBEntry
p0
(dp1
S'player_cards'
p2
(lp3
S'5'
p4
aS'8'
p5
asS'rank'
p6
(dp7
S'double_down'
p8
F-0.51557
sS'hit'
p9
F-0.260365
sS'stand'
p10
F-0.16419
ssS'classification'
p11
(g10
F-0.16419
tp12
sS'dealer_card'
p13
g4
sb.(i__main__
DBEntry
p0
(dp1
S'player_cards'
p2
(lp3
S'6'
p4
aS'7'
p5
asS'rank'
p6
(dp7
S'double_down'
p8
F-0.51789
sS'hit'
p9
F-0.25739
sS'stand'
p10
F-0.16468
ssS'classification'
p11
(g10
F-0.16468
tp12
sS'dealer_card'
p13
S'5'
p14
sb.(i__main__
DBEntry
p0
(dp1
S'player_cards'
p2
(lp3
S'2'
p4
aS'A'
p5
asS'rank'
p6
(dp7
S'double_down'
p8
F0.06011
sS'hit'
p9
F0.027415
sS'stand'
p10
F-0.21318
ssS'classification'
p11
(g8
F0.06011
tp12
sS'dealer_card'
p13
S'4'
p14
sb.(i__main__
DBEntry
p0
(dp1
S'player_cards'
p2
(lp3
S'3'
p4
aS'10'
p5
asS'rank'
p6
(dp7
S'double_down'
p8
F-0.53952
sS'hit'
p9
F-0.270745
sS'stand'
p10
F-0.21024
ssS'classification'
p11
(g10
F-0.21024
tp12
sS'dealer_card'
p13
S'4'
p14
sb.(i__main__
DBEntry
p0
(dp1
S'player_cards'
p2
(lp3
S'4'
p4
aS'9'
p5
asS'rank'
p6
(dp7
S'double_down'
p8
F-0.54788
sS'hit'
p9
F-0.275165
sS'stand'
p10
F-0.2132
ssS'classification'
p11
(g10
F-0.2132
tp12
sS'dealer_card'
p13
g4
sb.(i__main__
DBEntry
p0
(dp1
S'player_cards'
p2
(lp3
S'5'
p4
aS'8'
p5
asS'rank'
p6
(dp7
S'double_down'
p8
F-0.5524
sS'hit'
p9
F-0.274075
sS'stand'
p10
F-0.20914
ssS'classification'
p11
(g10
F-0.20914
tp12
sS'dealer_card'
p13
S'4'
p14
sb.(i__main__
DBEntry
p0
(dp1
S'player_cards'
p2
(lp3
S'6'
p4
aS'7'
p5
asS'rank'
p6
(dp7
S'double_down'
p8
F-0.55413
sS'hit'
p9
F-0.27529
sS'stand'
p10
F-0.20805
ssS'classification'
p11
(g10
F-0.20805
tp12
sS'dealer_card'
p13
S'4'
p14
sb.(i__main__
DBEntry
p0
(dp1
S'player_cards'
p2
(lp3
S'2'
p4
aS'A'
p5
asS'rank'
p6
(dp7
S'double_down'
p8
F-0.01154
sS'hit'
p9
F-0.001835
sS'stand'
p10
F-0.25137
ssS'classification'
p11
(g9
F-0.001835
tp12
sS'dealer_card'
p13
S'3'
p14
sb.(i__main__
DBEntry
p0
(dp1
S'player_cards'
p2
(lp3
S'3'
p4
aS'10'
p5
asS'rank'
p6
(dp7
S'double_down'
p8
F-0.57887
sS'hit'
p9
F-0.288675
sS'stand'
p10
F-0.2549
ssS'classification'
p11
(g10
F-0.2549
tp12
sS'dealer_card'
p13
g4
sb.(i__main__
DBEntry
p0
(dp1
S'player_cards'
p2
(lp3
S'4'
p4
aS'9'
p5
asS'rank'
p6
(dp7
S'double_down'
p8
F-0.57434
sS'hit'
p9
F-0.288975
sS'stand'
p10
F-0.25271
ssS'classification'
p11
(g10
F-0.25271
tp12
sS'dealer_card'
p13
S'3'
p14
sb.(i__main__
DBEntry
p0
(dp1
S'player_cards'
p2
(lp3
S'5'
p4
aS'8'
p5
asS'rank'
p6
(dp7
S'double_down'
p8
F-0.57437
sS'hit'
p9
F-0.29239
sS'stand'
p10
F-0.24922
ssS'classification'
p11
(g10
F-0.24922
tp12
sS'dealer_card'
p13
S'3'
p14
sb.(i__main__
DBEntry
p0
(dp1
S'player_cards'
p2
(lp3
S'6'
p4
aS'7'
p5
asS'rank'
p6
(dp7
S'double_down'
p8
F-0.57853
sS'hit'
p9
F-0.293635
sS'stand'
p10
F-0.24972
ssS'classification'
p11
(g10
F-0.24972
tp12
sS'dealer_card'
p13
S'3'
p14
sb.(i__main__
DBEntry
p0
(dp1
S'player_cards'
p2
(lp3
S'2'
p4
aS'A'
p5
asS'rank'
p6
(dp7
S'double_down'
p8
F-0.06812
sS'hit'
p9
F-0.034825
sS'stand'
p10
F-0.29212
ssS'classification'
p11
(g9
F-0.034825
tp12
sS'dealer_card'
p13
g4
sb.(i__main__
DBEntry
p0
(dp1
S'player_cards'
p2
(lp3
S'3'
p4
aS'10'
p5
asS'rank'
p6
(dp7
S'double_down'
p8
F-0.62017
sS'hit'
p9
F-0.306145
sS'stand'
p10
F-0.29103
ssS'classification'
p11
(g10
F-0.29103
tp12
sS'dealer_card'
p13
S'2'
p14
sb.(i__main__
DBEntry
p0
(dp1
S'player_cards'
p2
(lp3
S'4'
p4
aS'9'
p5
asS'rank'
p6
(dp7
S'double_down'
p8
F-0.60986
sS'hit'
p9
F-0.30716
sS'stand'
p10
F-0.29019
ssS'classification'
p11
(g10
F-0.29019
tp12
sS'dealer_card'
p13
S'2'
p14
sb.(i__main__
DBEntry
p0
(dp1
S'player_cards'
p2
(lp3
S'5'
p4
aS'8'
p5
asS'rank'
p6
(dp7
S'double_down'
p8
F-0.61112
sS'hit'
p9
F-0.304105
sS'stand'
p10
F-0.28933
ssS'classification'
p11
(g10
F-0.28933
tp12
sS'dealer_card'
p13
S'2'
p14
sb.(i__main__
DBEntry
p0
(dp1
S'player_cards'
p2
(lp3
S'6'
p4
aS'7'
p5
asS'rank'
p6
(dp7
S'double_down'
p8
F-0.61572
sS'hit'
p9
F-0.305745
sS'stand'
p10
F-0.29229
ssS'classification'
p11
(g10
F-0.29229
tp12
sS'dealer_card'
p13
S'2'
p14
sb.(i__main__
DBEntry
p0
(dp1
S'player_cards'
p2
(lp3
S'2'
p4
aS'10'
p5
asS'rank'
p6
(dp7
S'double_down'
p8
F-1.14981
sS'hit'
p9
F-0.515985
sS'stand'
p10
F-0.76928
ssS'classification'
p11
(g9
F-0.515985
tp12
sS'dealer_card'
p13
S'A'
p14
sb.(i__main__
DBEntry
p0
(dp1
S'player_cards'
p2
(lp3
S'3'
p4
aS'9'
p5
asS'rank'
p6
(dp7
S'double_down'
p8
F-1.14107
sS'hit'
p9
F-0.519915
sS'stand'
p10
F-0.76895
ssS'classification'
p11
(g9
F-0.519915
tp12
sS'dealer_card'
p13
S'A'
p14
sb.(i__main__
DBEntry
p0
(dp1
S'player_cards'
p2
(lp3
S'4'
p4
aS'8'
p5
asS'rank'
p6
(dp7
S'double_down'
p8
F-1.1443
sS'hit'
p9
F-0.52077
sS'stand'
p10
F-0.77109
ssS'classification'
p11
(g9
F-0.52077
tp12
sS'dealer_card'
p13
S'A'
p14
sb.(i__main__
DBEntry
p0
(dp1
S'player_cards'
p2
(lp3
S'5'
p4
aS'7'
p5
asS'rank'
p6
(dp7
S'double_down'
p8
F-1.14595
sS'hit'
p9
F-0.51863
sS'stand'
p10
F-0.76626
ssS'classification'
p11
(g9
F-0.51863
tp12
sS'dealer_card'
p13
S'A'
p14
sb.(i__main__
DBEntry
p0
(dp1
S'player_cards'
p2
(lp3
S'2'
p4
aS'10'
p5
asS'rank'
p6
(dp7
S'double_down'
p8
F-0.87234
sS'hit'
p9
F-0.42313
sS'stand'
p10
F-0.57826
ssS'classification'
p11
(g9
F-0.42313
tp12
sS'dealer_card'
p13
g5
sb.(i__main__
DBEntry
p0
(dp1
S'player_cards'
p2
(lp3
S'3'
p4
aS'9'
p5
asS'rank'
p6
(dp7
S'double_down'
p8
F-0.87908
sS'hit'
p9
F-0.421235
sS'stand'
p10
F-0.57755
ssS'classification'
p11
(g9
F-0.421235
tp12
sS'dealer_card'
p13
S'10'
p14
sb.(i__main__
DBEntry
p0
(dp1
S'player_cards'
p2
(lp3
S'4'
p4
aS'8'
p5
asS'rank'
p6
(dp7
S'double_down'
p8
F-0.8733
sS'hit'
p9
F-0.414885
sS'stand'
p10
F-0.57457
ssS'classification'
p11
(g9
F-0.414885
tp12
sS'dealer_card'
p13
S'10'
p14
sb.(i__main__
DBEntry
p0
(dp1
S'player_cards'
p2
(lp3
S'5'
p4
aS'7'
p5
asS'rank'
p6
(dp7
S'double_down'
p8
F-0.87683
sS'hit'
p9
F-0.422145
sS'stand'
p10
F-0.57928
ssS'classification'
p11
(g9
F-0.422145
tp12
sS'dealer_card'
p13
S'10'
p14
sb.(i__main__
DBEntry
p0
(dp1
S'player_cards'
p2
(lp3
S'2'
p4
aS'10'
p5
asS'rank'
p6
(dp7
S'double_down'
p8
F-0.73644
sS'hit'
p9
F-0.337095
sS'stand'
p10
F-0.54175
ssS'classification'
p11
(g9
F-0.337095
tp12
sS'dealer_card'
p13
S'9'
p14
sb.(i__main__
DBEntry
p0
(dp1
S'player_cards'
p2
(lp3
S'3'
p4
aS'9'
p5
asS'rank'
p6
(dp7
S'double_down'
p8
F-0.7439
sS'hit'
p9
F-0.34165
sS'stand'
p10
F-0.5413
ssS'classification'
p11
(g9
F-0.34165
tp12
sS'dealer_card'
p13
g5
sb.(i__main__
DBEntry
p0
(dp1
S'player_cards'
p2
(lp3
S'4'
p4
aS'8'
p5
asS'rank'
p6
(dp7
S'double_down'
p8
F-0.74629
sS'hit'
p9
F-0.34106
sS'stand'
p10
F-0.54232
ssS'classification'
p11
(g9
F-0.34106
tp12
sS'dealer_card'
p13
S'9'
p14
sb.(i__main__
DBEntry
p0
(dp1
S'player_cards'
p2
(lp3
S'5'
p4
aS'7'
p5
asS'rank'
p6
(dp7
S'double_down'
p8
F-0.74399
sS'hit'
p9
F-0.33527
sS'stand'
p10
F-0.53893
ssS'classification'
p11
(g9
F-0.33527
tp12
sS'dealer_card'
p13
S'9'
p14
sb.(i__main__
DBEntry
p0
(dp1
S'player_cards'
p2
(lp3
S'2'
p4
aS'10'
p5
asS'rank'
p6
(dp7
S'double_down'
p8
F-0.61857
sS'hit'
p9
F-0.2752
sS'stand'
p10
F-0.51013
ssS'classification'
p11
(g9
F-0.2752
tp12
sS'dealer_card'
p13
S'8'
p14
sb.(i__main__
DBEntry
p0
(dp1
S'player_cards'
p2
(lp3
S'3'
p4
aS'9'
p5
asS'rank'
p6
(dp7
S'double_down'
p8
F-0.62161
sS'hit'
p9
F-0.27485
sS'stand'
p10
F-0.51165
ssS'classification'
p11
(g9
F-0.27485
tp12
sS'dealer_card'
p13
S'8'
p14
sb.(i__main__
DBEntry
p0
(dp1
S'player_cards'
p2
(lp3
S'4'
p4
aS'8'
p5
asS'rank'
p6
(dp7
S'double_down'
p8
F-0.61497
sS'hit'
p9
F-0.272505
sS'stand'
p10
F-0.50976
ssS'classification'
p11
(g9
F-0.272505
tp12
sS'dealer_card'
p13
g5
sb.(i__main__
DBEntry
p0
(dp1
S'player_cards'
p2
(lp3
S'5'
p4
aS'7'
p5
asS'rank'
p6
(dp7
S'double_down'
p8
F-0.60673
sS'hit'
p9
F-0.274645
sS'stand'
p10
F-0.5135
ssS'classification'
p11
(g9
F-0.274645
tp12
sS'dealer_card'
p13
S'8'
p14
sb.(i__main__
DBEntry
p0
(dp1
S'player_cards'
p2
(lp3
S'2'
p4
aS'10'
p5
asS'rank'
p6
(dp7
S'double_down'
p8
F-0.51256
sS'hit'
p9
F-0.216115
sS'stand'
p10
F-0.47582
ssS'classification'
p11
(g9
F-0.216115
tp12
sS'dealer_card'
p13
S'7'
p14
sb.(i__main__
DBEntry
p0
(dp1
S'player_cards'
p2
(lp3
S'3'
p4
aS'9'
p5
asS'rank'
p6
(dp7
S'double_down'
p8
F-0.50947
sS'hit'
p9
F-0.21069
sS'stand'
p10
F-0.47503
ssS'classification'
p11
(g9
F-0.21069
tp12
sS'dealer_card'
p13
S'7'
p14
sb.(i__main__
DBEntry
p0
(dp1
S'player_cards'
p2
(lp3
S'4'
p4
aS'8'
p5
asS'rank'
p6
(dp7
S'double_down'
p8
F-0.50877
sS'hit'
p9
F-0.210945
sS'stand'
p10
F-0.47458
ssS'classification'
p11
(g9
F-0.210945
tp12
sS'dealer_card'
p13
S'7'
p14
sb.(i__main__
DBEntry
p0
(dp1
S'player_cards'
p2
(lp3
S'5'
p4
aS'7'
p5
asS'rank'
p6
(dp7
S'double_down'
p8
F-0.50642
sS'hit'
p9
F-0.21216
sS'stand'
p10
F-0.47513
ssS'classification'
p11
(g9
F-0.21216
tp12
sS'dealer_card'
p13
g5
sb.(i__main__
DBEntry
p0
(dp1
S'player_cards'
p2
(lp3
S'2'
p4
aS'10'
p5
asS'rank'
p6
(dp7
S'double_down'
p8
F-0.33973
sS'hit'
p9
F-0.17153
sS'stand'
p10
F-0.1532
ssS'classification'
p11
(g10
F-0.1532
tp12
sS'dealer_card'
p13
S'6'
p14
sb.(i__main__
DBEntry
p0
(dp1
S'player_cards'
p2
(lp3
S'3'
p4
aS'9'
p5
asS'rank'
p6
(dp7
S'double_down'
p8
F-0.34213
sS'hit'
p9
F-0.16849
sS'stand'
p10
F-0.15504
ssS'classification'
p11
(g10
F-0.15504
tp12
sS'dealer_card'
p13
S'6'
p14
sb.(i__main__
DBEntry
p0
(dp1
S'player_cards'
p2
(lp3
S'4'
p4
aS'8'
p5
asS'rank'
p6
(dp7
S'double_down'
p8
F-0.33855
sS'hit'
p9
F-0.170715
sS'stand'
p10
F-0.15642
ssS'classification'
p11
(g10
F-0.15642
tp12
sS'dealer_card'
p13
S'6'
p14
sb.(i__main__
DBEntry
p0
(dp1
S'player_cards'
p2
(lp3
S'5'
p4
aS'7'
p5
asS'rank'
p6
(dp7
S'double_down'
p8
F-0.34065
sS'hit'
p9
F-0.168635
sS'stand'
p10
F-0.15398
ssS'classification'
p11
(g10
F-0.15398
tp12
sS'dealer_card'
p13
S'6'
p14
sb.(i__main__
DBEntry
p0
(dp1
S'player_cards'
p2
(lp3
S'2'
p4
aS'10'
p5
asS'rank'
p6
(dp7
S'double_down'
p8
F-0.38845
sS'hit'
p9
F-0.19064
sS'stand'
p10
F-0.16714
ssS'classification'
p11
(g10
F-0.16714
tp12
sS'dealer_card'
p13
S'5'
p14
sb.(i__main__
DBEntry
p0
(dp1
S'player_cards'
p2
(lp3
S'3'
p4
aS'9'
p5
asS'rank'
p6
(dp7
S'double_down'
p8
F-0.38501
sS'hit'
p9
F-0.191545
sS'stand'
p10
F-0.16516
ssS'classification'
p11
(g10
F-0.16516
tp12
sS'dealer_card'
p13
S'5'
p14
sb.(i__main__
DBEntry
p0
(dp1
S'player_cards'
p2
(lp3
S'4'
p4
aS'8'
p5
asS'rank'
p6
(dp7
S'double_down'
p8
F-0.38351
sS'hit'
p9
F-0.19539
sS'stand'
p10
F-0.1661
ssS'classification'
p11
(g10
F-0.1661
tp12
sS'dealer_card'
p13
S'5'
p14
sb.(i__main__
DBEntry
p0
(dp1
S'player_cards'
p2
(lp3
S'5'
p4
aS'7'
p5
asS'rank'
p6
(dp7
S'double_down'
p8
F-0.3936
sS'hit'
p9
F-0.191395
sS'stand'
p10
F-0.16431
ssS'classification'
p11
(g10
F-0.16431
tp12
sS'dealer_card'
p13
g4
sb.(i__main__
DBEntry
p0
(dp1
S'player_cards'
p2
(lp3
S'2'
p4
aS'10'
p5
asS'rank'
p6
(dp7
S'double_down'
p8
F-0.42757
sS'hit'
p9
F-0.21132
sS'stand'
p10
F-0.2088
ssS'classification'
p11
(g10
F-0.2088
tp12
sS'dealer_card'
p13
S'4'
p14
sb.(i__main__
DBEntry
p0
(dp1
S'player_cards'
p2
(lp3
S'3'
p4
aS'9'
p5
asS'rank'
p6
(dp7
S'double_down'
p8
F-0.42611
sS'hit'
p9
F-0.21129
sS'stand'
p10
F-0.21304
ssS'classification'
p11
(g9
F-0.21129
tp12
sS'dealer_card'
p13
S'4'
p14
sb.(i__main__
DBEntry
p0
(dp1
S'player_cards'
p2
(lp3
S'4'
p4
aS'8'
p5
asS'rank'
p6
(dp7
S'double_down'
p8
F-0.42911
sS'hit'
p9
F-0.21536
sS'stand'
p10
F-0.2149
ssS'classification'
p11
(g10
F-0.2149
tp12
sS'dealer_card'
p13
g4
sb.(i__main__
DBEntry
p0
(dp1
S'player_cards'
p2
(lp3
S'5'
p4
aS'7'
p5
asS'rank'
p6
(dp7
S'double_down'
p8
F-0.42091
sS'hit'
p9
F-0.209355
sS'stand'
p10
F-0.21216
ssS'classification'
p11
(g9
F-0.209355
tp12
sS'dealer_card'
p13
S'4'
p14
sb.(i__main__
DBEntry
p0
(dp1
S'player_cards'
p2
(lp3
S'2'
p4
aS'10'
p5
asS'rank'
p6
(dp7
S'double_down'
p8
F-0.45817
sS'hit'
p9
F-0.23465
sS'stand'
p10
F-0.25431
ssS'classification'
p11
(g9
F-0.23465
tp12
sS'dealer_card'
p13
S'3'
p14
sb.(i__main__
DBEntry
p0
(dp1
S'player_cards'
p2
(lp3
S'3'
p4
aS'9'
p5
asS'rank'
p6
(dp7
S'double_down'
p8
F-0.46987
sS'hit'
p9
F-0.23493
sS'stand'
p10
F-0.24922
ssS'classification'
p11
(g9
F-0.23493
tp12
sS'dealer_card'
p13
g4
sb.(i__main__
DBEntry
p0
(dp1
S'player_cards'
p2
(lp3
S'4'
p4
aS'8'
p5
asS'rank'
p6
(dp7
S'double_down'
p8
F-0.46406
sS'hit'
p9
F-0.234275
sS'stand'
p10
F-0.25475
ssS'classification'
p11
(g9
F-0.234275
tp12
sS'dealer_card'
p13
S'3'
p14
sb.(i__main__
DBEntry
p0
(dp1
S'player_cards'
p2
(lp3
S'5'
p4
aS'7'
p5
asS'rank'
p6
(dp7
S'double_down'
p8
F-0.46346
sS'hit'
p9
F-0.23715
sS'stand'
p10
F-0.2531
ssS'classification'
p11
(g9
F-0.23715
tp12
sS'dealer_card'
p13
S'3'
p14
sb.(i__main__
DBEntry
p0
(dp1
S'player_cards'
p2
(lp3
S'2'
p4
aS'10'
p5
asS'rank'
p6
(dp7
S'double_down'
p8
F-0.50569
sS'hit'
p9
F-0.25191
sS'stand'
p10
F-0.29031
ssS'classification'
p11
(g9
F-0.25191
tp12
sS'dealer_card'
p13
g4
sb.(i__main__
DBEntry
p0
(dp1
S'player_cards'
p2
(lp3
S'3'
p4
aS'9'
p5
asS'rank'
p6
(dp7
S'double_down'
p8
F-0.5027
sS'hit'
p9
F-0.25438
sS'stand'
p10
F-0.29578
ssS'classification'
p11
(g9
F-0.25438
tp12
sS'dealer_card'
p13
S'2'
p14
sb.(i__main__
DBEntry
p0
(dp1
S'player_cards'
p2
(lp3
S'4'
p4
aS'8'
p5
asS'rank'
p6
(dp7
S'double_down'
p8
F-0.50343
sS'hit'
p9
F-0.253475
sS'stand'
p10
F-0.29235
ssS'classification'
p11
(g9
F-0.253475
tp12
sS'dealer_card'
p13
S'2'
p14
sb.(i__main__
DBEntry
p0
(dp1
S'player_cards'
p2
(lp3
S'5'
p4
aS'7'
p5
asS'rank'
p6
(dp7
S'double_down'
p8
F-0.51219
sS'hit'
p9
F-0.25241
sS'stand'
p10
F-0.29488
ssS'classification'
p11
(g9
F-0.25241
tp12
sS'dealer_card'
p13
S'2'
p14
sb.(i__main__
DBEntry
p0
(dp1
S'player_cards'
p2
(lp3
S'2'
p4
aS'9'
p5
asS'rank'
p6
(dp7
S'double_down'
p8
F-0.34784
sS'hit'
p9
F-0.106715
sS'stand'
p10
F-0.76858
ssS'classification'
p11
(g9
F-0.106715
tp12
sS'dealer_card'
p13
S'A'
p14
sb.(i__main__
DBEntry
p0
(dp1
S'player_cards'
p2
(lp3
S'3'
p4
aS'8'
p5
asS'rank'
p6
(dp7
S'double_down'
p8
F-0.34802
sS'hit'
p9
F-0.104665
sS'stand'
p10
F-0.77061
ssS'classification'
p11
(g9
F-0.104665
tp12
sS'dealer_card'
p13
S'A'
p14
sb.(i__main__
DBEntry
p0
(dp1
S'player_cards'
p2
(lp3
S'4'
p4
aS'7'
p5
asS'rank'
p6
(dp7
S'double_down'
p8
F-0.35011
sS'hit'
p9
F-0.102355
sS'stand'
p10
F-0.76844
ssS'classification'
p11
(g9
F-0.102355
tp12
sS'dealer_card'
p13
S'A'
p14
sb.(i__main__
DBEntry
p0
(dp1
S'player_cards'
p2
(lp3
S'5'
p4
aS'6'
p5
asS'rank'
p6
(dp7
S'double_down'
p8
F-0.3469
sS'hit'
p9
F-0.1087
sS'stand'
p10
F-0.76898
ssS'classification'
p11
(g9
F-0.1087
tp12
sS'dealer_card'
p13
S'A'
p14
sb.(i__main__
DBEntry
p0
(dp1
S'player_cards'
p2
(lp3
S'2'
p4
aS'9'
p5
asS'rank'
p6
(dp7
S'double_down'
p8
F0.06264
sS'hit'
p9
F0.054985
sS'stand'
p10
F-0.57419
ssS'classification'
p11
(g8
F0.06264
tp12
sS'dealer_card'
p13
S'10'
p14
sb.(i__main__
DBEntry
p0
(dp1
S'player_cards'
p2
(lp3
S'3'
p4
aS'8'
p5
asS'rank'
p6
(dp7
S'double_down'
p8
F0.0693
sS'hit'
p9
F0.05788
sS'stand'
p10
F-0.57634
ssS'classification'
p11
(g8
F0.0693
tp12
sS'dealer_card'
p13
S'10'
p14
sb.(i__main__
DBEntry
p0
(dp1
S'player_cards'
p2
(lp3
S'4'
p4
aS'7'
p5
asS'rank'
p6
(dp7
S'double_down'
p8
F0.05912
sS'hit'
p9
F0.058665
sS'stand'
p10
F-0.57821
ssS'classification'
p11
(g8
F0.05912
tp12
sS'dealer_card'
p13
S'10'
p14
sb.(i__main__
DBEntry
p0
(dp1
S'player_cards'
p2
(lp3
S'5'
p4
aS'6'
p5
asS'rank'
p6
(dp7
S'double_down'
p8
F0.06477
sS'hit'
p9
F0.058035
sS'stand'
p10
F-0.57328
ssS'classification'
p11
(g8
F0.06477
tp12
sS'dealer_card'
p13
S'10'
p14
sb.(i__main__
DBEntry
p0
(dp1
S'player_cards'
p2
(lp3
S'2'
p4
aS'9'
p5
asS'rank'
p6
(dp7
S'double_down'
p8
F0.22079
sS'hit'
p9
F0.15584
sS'stand'
p10
F-0.54439
ssS'classification'
p11
(g8
F0.22079
tp12
sS'dealer_card'
p13
g5
sb.(i__main__
DBEntry
p0
(dp1
S'player_cards'
p2
(lp3
S'3'
p4
aS'8'
p5
asS'rank'
p6
(dp7
S'double_down'
p8
F0.22859
sS'hit'
p9
F0.155
sS'stand'
p10
F-0.54475
ssS'classification'
p11
(g8
F0.22859
tp12
sS'dealer_card'
p13
S'9'
p14
sb.(i__main__
DBEntry
p0
(dp1
S'player_cards'
p2
(lp3
S'4'
p4
aS'7'
p5
asS'rank'
p6
(dp7
S'double_down'
p8
F0.2276
sS'hit'
p9
F0.16115
sS'stand'
p10
F-0.54201
ssS'classification'
p11
(g8
F0.2276
tp12
sS'dealer_card'
p13
S'9'
p14
sb.(i__main__
DBEntry
p0
(dp1
S'player_cards'
p2
(lp3
S'5'
p4
aS'6'
p5
asS'rank'
p6
(dp7
S'double_down'
p8
F0.22763
sS'hit'
p9
F0.159615
sS'stand'
p10
F-0.54219
ssS'classification'
p11
(g8
F0.22763
tp12
sS'dealer_card'
p13
S'9'
p14
sb.(i__main__
DBEntry
p0
(dp1
S'player_cards'
p2
(lp3
S'2'
p4
aS'9'
p5
asS'rank'
p6
(dp7
S'double_down'
p8
F0.35318
sS'hit'
p9
F0.227855
sS'stand'
p10
F-0.51166
ssS'classification'
p11
(g8
F0.35318
tp12
sS'dealer_card'
p13
S'8'
p14
sb.(i__main__
DBEntry
p0
(dp1
S'player_cards'
p2
(lp3
S'3'
p4
aS'8'
p5
asS'rank'
p6
(dp7
S'double_down'
p8
F0.35638
sS'hit'
p9
F0.230965
sS'stand'
p10
F-0.51094
ssS'classification'
p11
(g8
F0.35638
tp12
sS'dealer_card'
p13
g5
sb.(i__main__
DBEntry
p0
(dp1
S'player_cards'
p2
(lp3
S'4'
p4
aS'7'
p5
asS'rank'
p6
(dp7
S'double_down'
p8
F0.35098
sS'hit'
p9
F0.232255
sS'stand'
p10
F-0.51456
ssS'classification'
p11
(g8
F0.35098
tp12
sS'dealer_card'
p13
S'8'
p14
sb.(i__main__
DBEntry
p0
(dp1
S'player_cards'
p2
(lp3
S'5'
p4
aS'6'
p5
asS'rank'
p6
(dp7
S'double_down'
p8
F0.35234
sS'hit'
p9
F0.22552
sS'stand'
p10
F-0.51141
ssS'classification'
p11
(g8
F0.35234
tp12
sS'dealer_card'
p13
S'8'
p14
sb.(i__main__
DBEntry
p0
(dp1
S'player_cards'
p2
(lp3
S'2'
p4
aS'9'
p5
asS'rank'
p6
(dp7
S'double_down'
p8
F0.46211
sS'hit'
p9
F0.29159
sS'stand'
p10
F-0.47244
ssS'classification'
p11
(g8
F0.46211
tp12
sS'dealer_card'
p13
S'7'
p14
sb.(i__main__
DBEntry
p0
(dp1
S'player_cards'
p2
(lp3
S'3'
p4
aS'8'
p5
asS'rank'
p6
(dp7
S'double_down'
p8
F0.46301
sS'hit'
p9
F0.294175
sS'stand'
p10
F-0.47581
ssS'classification'
p11
(g8
F0.46301
tp12
sS'dealer_card'
p13
S'7'
p14
sb.(i__main__
DBEntry
p0
(dp1
S'player_cards'
p2
(lp3
S'4'
p4
aS'7'
p5
asS'rank'
p6
(dp7
S'double_down'
p8
F0.46437
sS'hit'
p9
F0.293625
sS'stand'
p10
F-0.4785
ssS'classification'
p11
(g8
F0.46437
tp12
sS'dealer_card'
p13
g5
sb.(i__main__
DBEntry
p0
(dp1
S'player_cards'
p2
(lp3
S'5'
p4
aS'6'
p5
asS'rank'
p6
(dp7
S'double_down'
p8
F0.46581
sS'hit'
p9
F0.28991
sS'stand'
p10
F-0.47657
ssS'classification'
p11
(g8
F0.46581
tp12
sS'dealer_card'
p13
S'7'
p14
sb.(i__main__
DBEntry
p0
(dp1
S'player_cards'
p2
(lp3
S'2'
p4
aS'9'
p5
asS'rank'
p6
(dp7
S'double_down'
p8
F0.66233
sS'hit'
p9
F0.331315
sS'stand'
p10
F-0.15238
ssS'classification'
p11
(g8
F0.66233
tp12
sS'dealer_card'
p13
S'6'
p14
sb.(i__main__
DBEntry
p0
(dp1
S'player_cards'
p2
(lp3
S'3'
p4
aS'8'
p5
asS'rank'
p6
(dp7
S'double_down'
p8
F0.66494
sS'hit'
p9
F0.33276
sS'stand'
p10
F-0.15529
ssS'classification'
p11
(g8
F0.66494
tp12
sS'dealer_card'
p13
S'6'
p14
sb.(i__main__
DBEntry
p0
(dp1
S'player_cards'
p2
(lp3
S'4'
p4
aS'7'
p5
asS'rank'
p6
(dp7
S'double_down'
p8
F0.67434
sS'hit'
p9
F0.333325
sS'stand'
p10
F-0.15623
ssS'classification'
p11
(g8
F0.67434
tp12
sS'dealer_card'
p13
S'6'
p14
sb.(i__main__
DBEntry
p0
(dp1
S'player_cards'
p2
(lp3
S'5'
p4
aS'6'
p5
asS'rank'
p6
(dp7
S'double_down'
p8
F0.67118
sS'hit'
p9
F0.33244
sS'stand'
p10
F-0.15417
ssS'classification'
p11
(g8
F0.67118
tp12
sS'dealer_card'
p13
g5
sb.(i__main__
DBEntry
p0
(dp1
S'player_cards'
p2
(lp3
S'2'
p4
aS'9'
p5
asS'rank'
p6
(dp7
S'double_down'
p8
F0.61363
sS'hit'
p9
F0.30652
sS'stand'
p10
F-0.16427
ssS'classification'
p11
(g8
F0.61363
tp12
sS'dealer_card'
p13
S'5'
p14
sb.(i__main__
DBEntry
p0
(dp1
S'player_cards'
p2
(lp3
S'3'
p4
aS'8'
p5
asS'rank'
p6
(dp7
S'double_down'
p8
F0.61065
sS'hit'
p9
F0.30899
sS'stand'
p10
F-0.16534
ssS'classification'
p11
(g8
F0.61065
tp12
sS'dealer_card'
p13
S'5'
p14
sb.(i__main__
DBEntry
p0
(dp1
S'player_cards'
p2
(lp3
S'4'
p4
aS'7'
p5
asS'rank'
p6
(dp7
S'double_down'
p8
F0.61592
sS'hit'
p9
F0.308725
sS'stand'
p10
F-0.16748
ssS'classification'
p11
(g8
F0.61592
tp12
sS'dealer_card'
p13
S'5'
p14
sb.(i__main__
DBEntry
p0
(dp1
S'player_cards'
p2
(lp3
S'5'
p4
aS'6'
p5
asS'rank'
p6
(dp7
S'double_down'
p8
F0.62107
sS'hit'
p9
F0.31047
sS'stand'
p10
F-0.16437
ssS'classification'
p11
(g8
F0.62107
tp12
sS'dealer_card'
p13
g4
sb.(i__main__
DBEntry
p0
(dp1
S'player_cards'
p2
(lp3
S'2'
p4
aS'9'
p5
asS'rank'
p6
(dp7
S'double_down'
p8
F0.56088
sS'hit'
p9
F0.28664
sS'stand'
p10
F-0.21267
ssS'classification'
p11
(g8
F0.56088
tp12
sS'dealer_card'
p13
S'4'
p14
sb.(i__main__
DBEntry
p0
(dp1
S'player_cards'
p2
(lp3
S'3'
p4
aS'8'
p5
asS'rank'
p6
(dp7
S'double_down'
p8
F0.56198
sS'hit'
p9
F0.28538
sS'stand'
p10
F-0.21104
ssS'classification'
p11
(g8
F0.56198
tp12
sS'dealer_card'
p13
S'4'
p14
sb.(i__main__
DBEntry
p0
(dp1
S'player_cards'
p2
(lp3
S'4'
p4
aS'7'
p5
asS'rank'
p6
(dp7
S'double_down'
p8
F0.56911
sS'hit'
p9
F0.282775
sS'stand'
p10
F-0.21335
ssS'classification'
p11
(g8
F0.56911
tp12
sS'dealer_card'
p13
g4
sb.(i__main__
DBEntry
p0
(dp1
S'player_cards'
p2
(lp3
S'5'
p4
aS'6'
p5
asS'rank'
p6
(dp7
S'double_down'
p8
F0.56994
sS'hit'
p9
F0.28217
sS'stand'
p10
F-0.2114
ssS'classification'
p11
(g8
F0.56994
tp12
sS'dealer_card'
p13
S'4'
p14
sb.(i__main__
DBEntry
p0
(dp1
S'player_cards'
p2
(lp3
S'2'
p4
aS'9'
p5
asS'rank'
p6
(dp7
S'double_down'
p8
F0.51512
sS'hit'
p9
F0.25978
sS'stand'
p10
F-0.24751
ssS'classification'
p11
(g8
F0.51512
tp12
sS'dealer_card'
p13
S'3'
p14
sb.(i__main__
DBEntry
p0
(dp1
S'player_cards'
p2
(lp3
S'3'
p4
aS'8'
p5
asS'rank'
p6
(dp7
S'double_down'
p8
F0.51788
sS'hit'
p9
F0.26387
sS'stand'
p10
F-0.24986
ssS'classification'
p11
(g8
F0.51788
tp12
sS'dealer_card'
p13
g4
sb.(i__main__
DBEntry
p0
(dp1
S'player_cards'
p2
(lp3
S'4'
p4
aS'7'
p5
asS'rank'
p6
(dp7
S'double_down'
p8
F0.52252
sS'hit'
p9
F0.261715
sS'stand'
p10
F-0.25569
ssS'classification'
p11
(g8
F0.52252
tp12
sS'dealer_card'
p13
S'3'
p14
sb.(i__main__
DBEntry
p0
(dp1
S'player_cards'
p2
(lp3
S'5'
p4
aS'6'
p5
asS'rank'
p6
(dp7
S'double_down'
p8
F0.5224
sS'hit'
p9
F0.25845
sS'stand'
p10
F-0.25162
ssS'classification'
p11
(g8
F0.5224
tp12
sS'dealer_card'
p13
S'3'
p14
sb.(i__main__
DBEntry
p0
(dp1
S'player_cards'
p2
(lp3
S'2'
p4
aS'9'
p5
asS'rank'
p6
(dp7
S'double_down'
p8
F0.46231
sS'hit'
p9
F0.2386
sS'stand'
p10
F-0.29073
ssS'classification'
p11
(g8
F0.46231
tp12
sS'dealer_card'
p13
g4
sb.(i__main__
DBEntry
p0
(dp1
S'player_cards'
p2
(lp3
S'3'
p4
aS'8'
p5
asS'rank'
p6
(dp7
S'double_down'
p8
F0.46964
sS'hit'
p9
F0.241875
sS'stand'
p10
F-0.2915
ssS'classification'
p11
(g8
F0.46964
tp12
sS'dealer_card'
p13
S'2'
p14
sb.(i__main__
DBEntry
p0
(dp1
S'player_cards'
p2
(lp3
S'4'
p4
aS'7'
p5
asS'rank'
p6
(dp7
S'double_down'
p8
F0.46752
sS'hit'
p9
F0.237375
sS'stand'
p10
F-0.29085
ssS'classification'
p11
(g8
F0.46752
tp12
sS'dealer_card'
p13
S'2'
p14
sb.(i__main__
DBEntry
p0
(dp1
S'player_cards'
p2
(lp3
S'5'
p4
aS'6'
p5
asS'rank'
p6
(dp7
S'double_down'
p8
F0.46863
sS'hit'
p9
F0.234665
sS'stand'
p10
F-0.29088
ssS'classification'
p11
(g8
F0.46863
tp12
sS'dealer_card'
p13
S'2'
p14
sb.(i__main__
DBEntry
p0
(dp1
S'player_cards'
p2
(lp3
S'2'
p4
aS'8'
p5
asS'rank'
p6
(dp7
S'double_down'
p8
F-0.57576
sS'hit'
p9
F-0.215755
sS'stand'
p10
F-0.76815
ssS'classification'
p11
(g9
F-0.215755
tp12
sS'dealer_card'
p13
S'A'
p14
sb.(i__main__
DBEntry
p0
(dp1
S'player_cards'
p2
(lp3
S'3'
p4
aS'7'
p5
asS'rank'
p6
(dp7
S'double_down'
p8
F-0.58038
sS'hit'
p9
F-0.218365
sS'stand'
p10
F-0.77075
ssS'classification'
p11
(g9
F-0.218365
tp12
sS'dealer_card'
p13
S'A'
p14
sb.(i__main__
DBEntry
p0
(dp1
S'player_cards'
p2
(lp3
S'4'
p4
aS'6'
p5
asS'rank'
p6
(dp7
S'double_down'
p8
F-0.578
sS'hit'
p9
F-0.215915
sS'stand'
p10
F-0.76765
ssS'classification'
p11
(g9
F-0.215915
tp12
sS'dealer_card'
p13
S'A'
p14
sb.(i__main__
DBEntry
p0
(dp1
S'player_cards'
p2
(lp3
S'2'
p4
aS'8'
p5
asS'rank'
p6
(dp7
S'double_down'
p8
F-0.1438
sS'hit'
p9
F-0.04201
sS'stand'
p10
F-0.57767
ssS'classification'
p11
(g9
F-0.04201
tp12
sS'dealer_card'
p13
S'10'
p14
sb.(i__main__
DBEntry
p0
(dp1
S'player_cards'
p2
(lp3
S'3'
p4
aS'7'
p5
asS'rank'
p6
(dp7
S'double_down'
p8
F-0.145
sS'hit'
p9
F-0.047035
sS'stand'
p10
F-0.57332
ssS'classification'
p11
(g9
F-0.047035
tp12
sS'dealer_card'
p13
S'10'
p14
sb.(i__main__
DBEntry
p0
(dp1
S'player_cards'
p2
(lp3
S'4'
p4
aS'6'
p5
asS'rank'
p6
(dp7
S'double_down'
p8
F-0.1556
sS'hit'
p9
F-0.04535
sS'stand'
p10
F-0.57568
ssS'classification'
p11
(g9
F-0.04535
tp12
sS'dealer_card'
p13
S'10'
p14
sb.(i__main__
DBEntry
p0
(dp1
S'player_cards'
p2
(lp3
S'2'
p4
aS'8'
p5
asS'rank'
p6
(dp7
S'double_down'
p8
F0.14229
sS'hit'
p9
F0.11876
sS'stand'
p10
F-0.54124
ssS'classification'
p11
(g8
F0.14229
tp12
sS'dealer_card'
p13
S'9'
p14
sb.(i__main__
DBEntry
p0
(dp1
S'player_cards'
p2
(lp3
S'3'
p4
aS'7'
p5
asS'rank'
p6
(dp7
S'double_down'
p8
F0.15029
sS'hit'
p9
F0.11935
sS'stand'
p10
F-0.54275
ssS'classification'
p11
(g8
F0.15029
tp12
sS'dealer_card'
p13
S'9'
p14
sb.(i__main__
DBEntry
p0
(dp1
S'player_cards'
p2
(lp3
S'4'
p4
aS'6'
p5
asS'rank'
p6
(dp7
S'double_down'
p8
F0.15031
sS'hit'
p9
F0.116295
sS'stand'
p10
F-0.54369
ssS'classification'
p11
(g8
F0.15031
tp12
sS'dealer_card'
p13
S'9'
p14
sb.(i__main__
DBEntry
p0
(dp1
S'player_cards'
p2
(lp3
S'2'
p4
aS'8'
p5
asS'rank'
p6
(dp7
S'double_down'
p8
F0.28188
sS'hit'
p9
F0.197885
sS'stand'
p10
F-0.50976
ssS'classification'
p11
(g8
F0.28188
tp12
sS'dealer_card'
p13
g5
sb.(i__main__
DBEntry
p0
(dp1
S'player_cards'
p2
(lp3
S'3'
p4
aS'7'
p5
asS'rank'
p6
(dp7
S'double_down'
p8
F0.28392
sS'hit'
p9
F0.192975
sS'stand'
p10
F-0.515
ssS'classification'
p11
(g8
F0.28392
tp12
sS'dealer_card'
p13
S'8'
p14
sb.(i__main__
DBEntry
p0
(dp1
S'player_cards'
p2
(lp3
S'4'
p4
aS'6'
p5
asS'rank'
p6
(dp7
S'double_down'
p8
F0.28946
sS'hit'
p9
F0.198985
sS'stand'
p10
F-0.51201
ssS'classification'
p11
(g8
F0.28946
tp12
sS'dealer_card'
p13
S'8'
p14
sb.(i__main__
DBEntry
p0
(dp1
S'player_cards'
p2
(lp3
S'2'
p4
aS'8'
p5
asS'rank'
p6
(dp7
S'double_down'
p8
F0.38922
sS'hit'
p9
F0.25721
sS'stand'
p10
F-0.47968
ssS'classification'
p11
(g8
F0.38922
tp12
sS'dealer_card'
p13
S'7'
p14
sb.(i__main__
DBEntry
p0
(dp1
S'player_cards'
p2
(lp3
S'3'
p4
aS'7'
p5
asS'rank'
p6
(dp7
S'double_down'
p8
F0.39887
sS'hit'
p9
F0.26138
sS'stand'
p10
F-0.47503
ssS'classification'
p11
(g8
F0.39887
tp12
sS'dealer_card'
p13
g5
sb.(i__main__
DBEntry
p0
(dp1
S'player_cards'
p2
(lp3
S'4'
p4
aS'6'
p5
asS'rank'
p6
(dp7
S'double_down'
p8
F0.39563
sS'hit'
p9
F0.253765
sS'stand'
p10
F-0.47544
ssS'classification'
p11
(g8
F0.39563
tp12
sS'dealer_card'
p13
S'7'
p14
sb.(i__main__
DBEntry
p0
(dp1
S'player_cards'
p2
(lp3
S'2'
p4
aS'8'
p5
asS'rank'
p6
(dp7
S'double_down'
p8
F0.58024
sS'hit'
p9
F0.28873
sS'stand'
p10
F-0.15237
ssS'classification'
p11
(g8
F0.58024
tp12
sS'dealer_card'
p13
S'6'
p14
sb.(i__main__
DBEntry
p0
(dp1
S'player_cards'
p2
(lp3
S'3'
p4
aS'7'
p5
asS'rank'
p6
(dp7
S'double_down'
p8
F0.5793
sS'hit'
p9
F0.287395
sS'stand'
p10
F-0.15742
ssS'classification'
p11
(g8
F0.5793
tp12
sS'dealer_card'
p13
S'6'
p14
sb.(i__main__
DBEntry
p0
(dp1
S'player_cards'
p2
(lp3
S'4'
p4
aS'6'
p5
asS'rank'
p6
(dp7
S'double_down'
p8
F0.58236
sS'hit'
p9
F0.28703
sS'stand'
p10
F-0.15154
ssS'classification'
p11
(g8
F0.58236
tp12
sS'dealer_card'
p13
g5
sb.(i__main__
DBEntry
p0
(dp1
S'player_cards'
p2
(lp3
S'2'
p4
aS'8'
p5
asS'rank'
p6
(dp7
S'double_down'
p8
F0.51458
sS'hit'
p9
F0.25625
sS'stand'
p10
F-0.16285
ssS'classification'
p11
(g8
F0.51458
tp12
sS'dealer_card'
p13
S'5'
p14
sb.(i__main__
DBEntry
p0
(dp1
S'player_cards'
p2
(lp3
S'3'
p4
aS'7'
p5
asS'rank'
p6
(dp7
S'double_down'
p8
F0.50599
sS'hit'
p9
F0.2533
sS'stand'
p10
F-0.17145
ssS'classification'
p11
(g8
F0.50599
tp12
sS'dealer_card'
p13
S'5'
p14
sb.(i__main__
DBEntry
p0
(dp1
S'player_cards'
p2
(lp3
S'4'
p4
aS'6'
p5
asS'rank'
p6
(dp7
S'double_down'
p8
F0.5169
sS'hit'
p9
F0.25698
sS'stand'
p10
F-0.16814
ssS'classification'
p11
(g8
F0.5169
tp12
sS'dealer_card'
p13
S'5'
p14
sb.(i__main__
DBEntry
p0
(dp1
S'player_cards'
p2
(lp3
S'2'
p4
aS'8'
p5
asS'rank'
p6
(dp7
S'double_down'
p8
F0.46026
sS'hit'
p9
F0.231375
sS'stand'
p10
F-0.21158
ssS'classification'
p11
(g8
F0.46026
tp12
sS'dealer_card'
p13
S'4'
p14
sb.(i__main__
DBEntry
p0
(dp1
S'player_cards'
p2
(lp3
S'3'
p4
aS'7'
p5
asS'rank'
p6
(dp7
S'double_down'
p8
F0.46002
sS'hit'
p9
F0.22945
sS'stand'
p10
F-0.21021
ssS'classification'
p11
(g8
F0.46002
tp12
sS'dealer_card'
p13
S'4'
p14
sb.(i__main__
DBEntry
p0
(dp1
S'player_cards'
p2
(lp3
S'4'
p4
aS'6'
p5
asS'rank'
p6
(dp7
S'double_down'
p8
F0.46274
sS'hit'
p9
F0.23042
sS'stand'
p10
F-0.20824
ssS'classification'
p11
(g8
F0.46274
tp12
sS'dealer_card'
p13
g4
sb.(i__main__
DBEntry
p0
(dp1
S'player_cards'
p2
(lp3
S'2'
p4
aS'8'
p5
asS'rank'
p6
(dp7
S'double_down'
p8
F0.40786
sS'hit'
p9
F0.206425
sS'stand'
p10
F-0.25556
ssS'classification'
p11
(g8
F0.40786
tp12
sS'dealer_card'
p13
S'3'
p14
sb.(i__main__
DBEntry
p0
(dp1
S'player_cards'
p2
(lp3
S'3'
p4
aS'7'
p5
asS'rank'
p6
(dp7
S'double_down'
p8
F0.40789
sS'hit'
p9
F0.204905
sS'stand'
p10
F-0.25358
ssS'classification'
p11
(g8
F0.40789
tp12
sS'dealer_card'
p13
g4
sb.(i__main__
DBEntry
p0
(dp1
S'player_cards'
p2
(lp3
S'4'
p4
aS'6'
p5
asS'rank'
p6
(dp7
S'double_down'
p8
F0.41475
sS'hit'
p9
F0.204875
sS'stand'
p10
F-0.25079
ssS'classification'
p11
(g8
F0.41475
tp12
sS'dealer_card'
p13
S'3'
p14
sb.(i__main__
DBEntry
p0
(dp1
S'player_cards'
p2
(lp3
S'2'
p4
aS'8'
p5
asS'rank'
p6
(dp7
S'double_down'
p8
F0.36171
sS'hit'
p9
F0.184155
sS'stand'
p10
F-0.29465
ssS'classification'
p11
(g8
F0.36171
tp12
sS'dealer_card'
p13
g4
sb.(i__main__
DBEntry
p0
(dp1
S'player_cards'
p2
(lp3
S'3'
p4
aS'7'
p5
asS'rank'
p6
(dp7
S'double_down'
p8
F0.36204
sS'hit'
p9
F0.1811
sS'stand'
p10
F-0.29423
ssS'classification'
p11
(g8
F0.36204
tp12
sS'dealer_card'
p13
S'2'
p14
sb.(i__main__
DBEntry
p0
(dp1
S'player_cards'
p2
(lp3
S'4'
p4
aS'6'
p5
asS'rank'
p6
(dp7
S'double_down'
p8
F0.36181
sS'hit'
p9
F0.183455
sS'stand'
p10
F-0.29247
ssS'classification'
p11
(g8
F0.36181
tp12
sS'dealer_card'
p13
S'2'
p14
sb.(i__main__
DBEntry
p0
(dp1
S'player_cards'
p2
(lp3
S'2'
p4
aS'7'
p5
asS'rank'
p6
(dp7
S'double_down'
p8
F-0.91569
sS'hit'
p9
F-0.335085
sS'stand'
p10
F-0.76935
ssS'classification'
p11
(g9
F-0.335085
tp12
sS'dealer_card'
p13
S'A'
p14
sb.(i__main__
DBEntry
p0
(dp1
S'player_cards'
p2
(lp3
S'3'
p4
aS'6'
p5
asS'rank'
p6
(dp7
S'double_down'
p8
F-0.91366
sS'hit'
p9
F-0.332045
sS'stand'
p10
F-0.77022
ssS'classification'
p11
(g9
F-0.332045
tp12
sS'dealer_card'
p13
S'A'
p14
sb.(i__main__
DBEntry
p0
(dp1
S'player_cards'
p2
(lp3
S'4'
p4
aS'5'
p5
asS'rank'
p6
(dp7
S'double_down'
p8
F-0.91763
sS'hit'
p9
F-0.33704
sS'stand'
p10
F-0.76965
ssS'classification'
p11
(g9
F-0.33704
tp12
sS'dealer_card'
p13
S'A'
p14
sb.(i__main__
DBEntry
p0
(dp1
S'player_cards'
p2
(lp3
S'2'
p4
aS'7'
p5
asS'rank'
p6
(dp7
S'double_down'
p8
F-0.58234
sS'hit'
p9
F-0.20705
sS'stand'
p10
F-0.57471
ssS'classification'
p11
(g9
F-0.20705
tp12
sS'dealer_card'
p13
S'10'
p14
sb.(i__main__
DBEntry
p0
(dp1
S'player_cards'
p2
(lp3
S'3'
p4
aS'6'
p5
asS'rank'
p6
(dp7
S'double_down'
p8
F-0.58684
sS'hit'
p9
F-0.214225
sS'stand'
p10
F-0.57495
ssS'classification'
p11
(g9
F-0.214225
tp12
sS'dealer_card'
p13
S'10'
p14
sb.(i__main__
DBEntry
p0
(dp1
S'player_cards'
p2
(lp3
S'4'
p4
aS'5'
p5
asS'rank'
p6
(dp7
S'double_down'
p8
F-0.57785
sS'hit'
p9
F-0.21407
sS'stand'
p10
F-0.57458
ssS'classification'
p11
(g9
F-0.21407
tp12
sS'dealer_card'
p13
S'10'
p14
sb.(i__main__
DBEntry
p0
(dp1
S'player_cards'
p2
(lp3
S'2'
p4
aS'7'
p5
asS'rank'
p6
(dp7
S'double_down'
p8
F-0.30027
sS'hit'
p9
F-0.0465
sS'stand'
p10
F-0.54221
ssS'classification'
p11
(g9
F-0.0465
tp12
sS'dealer_card'
p13
S'9'
p14
sb.(i__main__
DBEntry
p0
(dp1
S'player_cards'
p2
(lp3
S'3'
p4
aS'6'
p5
asS'rank'
p6
(dp7
S'double_down'
p8
F-0.30346
sS'hit'
p9
F-0.04383
sS'stand'
p10
F-0.5414
ssS'classification'
p11
(g9
F-0.04383
tp12
sS'dealer_card'
p13
S'9'
p14
sb.(i__main__
DBEntry
p0
(dp1
S'player_cards'
p2
(lp3
S'4'
p4
aS'5'
p5
asS'rank'
p6
(dp7
S'double_down'
p8
F-0.30438
sS'hit'
p9
F-0.047655
sS'stand'
p10
F-0.54091
ssS'classification'
p11
(g9
F-0.047655
tp12
sS'dealer_card'
p13
S'9'
p14
sb.(i__main__
DBEntry
p0
(dp1
S'player_cards'
p2
(lp3
S'2'
p4
aS'7'
p5
asS'rank'
p6
(dp7
S'double_down'
p8
F-0.02742
sS'hit'
p9
F0.107195
sS'stand'
p10
F-0.50819
ssS'classification'
p11
(g9
F0.107195
tp12
sS'dealer_card'
p13
S'8'
p14
sb.(i__main__
DBEntry
p0
(dp1
S'player_cards'
p2
(lp3
S'3'
p4
aS'6'
p5
asS'rank'
p6
(dp7
S'double_down'
p8
F-0.02876
sS'hit'
p9
F0.1051
sS'stand'
p10
F-0.50922
ssS'classification'
p11
(g9
F0.1051
tp12
sS'dealer_card'
p13
S'8'
p14
sb.(i__main__
DBEntry
p0
(dp1
S'player_cards'
p2
(lp3
S'4'
p4
aS'5'
p5
asS'rank'
p6
(dp7
S'double_down'
p8
F-0.03311
sS'hit'
p9
F0.110975
sS'stand'
p10
F-0.51099
ssS'classification'
p11
(g9
F0.110975
tp12
sS'dealer_card'
p13
S'8'
p14
sb.(i__main__
DBEntry
p0
(dp1
S'player_cards'
p2
(lp3
S'2'
p4
aS'7'
p5
asS'rank'
p6
(dp7
S'double_down'
p8
F0.1026
sS'hit'
p9
F0.18257
sS'stand'
p10
F-0.47639
ssS'classification'
p11
(g9
F0.18257
tp12
sS'dealer_card'
p13
g5
sb.(i__main__
DBEntry
p0
(dp1
S'player_cards'
p2
(lp3
S'3'
p4
aS'6'
p5
asS'rank'
p6
(dp7
S'double_down'
p8
F0.101
sS'hit'
p9
F0.18265
sS'stand'
p10
F-0.47368
ssS'classification'
p11
(g9
F0.18265
tp12
sS'dealer_card'
p13
S'7'
p14
sb.(i__main__
DBEntry
p0
(dp1
S'player_cards'
p2
(lp3
S'4'
p4
aS'5'
p5
asS'rank'
p6
(dp7
S'double_down'
p8
F0.11523
sS'hit'
p9
F0.1826
sS'stand'
p10
F-0.47592
ssS'classification'
p11
(g9
F0.1826
tp12
sS'dealer_card'
p13
S'7'
p14
sb.(i__main__
DBEntry
p0
(dp1
S'player_cards'
p2
(lp3
S'2'
p4
aS'7'
p5
asS'rank'
p6
(dp7
S'double_down'
p8
F0.32036
sS'hit'
p9
F0.220105
sS'stand'
p10
F-0.15152
ssS'classification'
p11
(g8
F0.32036
tp12
sS'dealer_card'
p13
S'6'
p14
sb.(i__main__
DBEntry
p0
(dp1
S'player_cards'
p2
(lp3
S'3'
p4
aS'6'
p5
asS'rank'
p6
(dp7
S'double_down'
p8
F0.31525
sS'hit'
p9
F0.22291
sS'stand'
p10
F-0.15291
ssS'classification'
p11
(g8
F0.31525
tp12
sS'dealer_card'
p13
g5
sb.(i__main__
DBEntry
p0
(dp1
S'player_cards'
p2
(lp3
S'4'
p4
aS'5'
p5
asS'rank'
p6
(dp7
S'double_down'
p8
F0.31946
sS'hit'
p9
F0.22597
sS'stand'
p10
F-0.15367
ssS'classification'
p11
(g8
F0.31946
tp12
sS'dealer_card'
p13
S'6'
p14
sb.(i__main__
DBEntry
p0
(dp1
S'player_cards'
p2
(lp3
S'2'
p4
aS'7'
p5
asS'rank'
p6
(dp7
S'double_down'
p8
F0.24637
sS'hit'
p9
F0.181405
sS'stand'
p10
F-0.16475
ssS'classification'
p11
(g8
F0.24637
tp12
sS'dealer_card'
p13
S'5'
p14
sb.(i__main__
DBEntry
p0
(dp1
S'player_cards'
p2
(lp3
S'3'
p4
aS'6'
p5
asS'rank'
p6
(dp7
S'double_down'
p8
F0.25016
sS'hit'
p9
F0.17905
sS'stand'
p10
F-0.16752
ssS'classification'
p11
(g8
F0.25016
tp12
sS'dealer_card'
p13
S'5'
p14
sb.(i__main__
DBEntry
p0
(dp1
S'player_cards'
p2
(lp3
S'4'
p4
aS'5'
p5
asS'rank'
p6
(dp7
S'double_down'
p8
F0.24062
sS'hit'
p9
F0.18478
sS'stand'
p10
F-0.16555
ssS'classification'
p11
(g8
F0.24062
tp12
sS'dealer_card'
p13
g5
sb.(i__main__
DBEntry
p0
(dp1
S'player_cards'
p2
(lp3
S'2'
p4
aS'7'
p5
asS'rank'
p6
(dp7
S'double_down'
p8
F0.1848
sS'hit'
p9
F0.146945
sS'stand'
p10
F-0.21135
ssS'classification'
p11
(g8
F0.1848
tp12
sS'dealer_card'
p13
S'4'
p14
sb.(i__main__
DBEntry
p0
(dp1
S'player_cards'
p2
(lp3
S'3'
p4
aS'6'
p5
asS'rank'
p6
(dp7
S'double_down'
p8
F0.18265
sS'hit'
p9
F0.15149
sS'stand'
p10
F-0.2093
ssS'classification'
p11
(g8
F0.18265
tp12
sS'dealer_card'
p13
S'4'
p14
sb.(i__main__
DBEntry
p0
(dp1
S'player_cards'
p2
(lp3
S'4'
p4
aS'5'
p5
asS'rank'
p6
(dp7
S'double_down'
p8
F0.17852
sS'hit'
p9
F0.153805
sS'stand'
p10
F-0.20933
ssS'classification'
p11
(g8
F0.17852
tp12
sS'dealer_card'
p13
g4
sb.(i__main__
DBEntry
p0
(dp1
S'player_cards'
p2
(lp3
S'2'
p4
aS'7'
p5
asS'rank'
p6
(dp7
S'double_down'
p8
F0.12829
sS'hit'
p9
F0.1169
sS'stand'
p10
F-0.25099
ssS'classification'
p11
(g8
F0.12829
tp12
sS'dealer_card'
p13
S'3'
p14
sb.(i__main__
DBEntry
p0
(dp1
S'player_cards'
p2
(lp3
S'3'
p4
aS'6'
p5
asS'rank'
p6
(dp7
S'double_down'
p8
F0.12177
sS'hit'
p9
F0.125235
sS'stand'
p10
F-0.24982
ssS'classification'
p11
(g9
F0.125235
tp12
sS'dealer_card'
p13
g4
sb.(i__main__
DBEntry
p0
(dp1
S'player_cards'
p2
(lp3
S'4'
p4
aS'5'
p5
asS'rank'
p6
(dp7
S'double_down'
p8
F0.11575
sS'hit'
p9
F0.12218
sS'stand'
p10
F-0.24939
ssS'classification'
p11
(g9
F0.12218
tp12
sS'dealer_card'
p13
S'3'
p14
sb.(i__main__
DBEntry
p0
(dp1
S'player_cards'
p2
(lp3
S'2'
p4
aS'7'
p5
asS'rank'
p6
(dp7
S'double_down'
p8
F0.06836
sS'hit'
p9
F0.08786
sS'stand'
p10
F-0.29103
ssS'classification'
p11
(g9
F0.08786
tp12
sS'dealer_card'
p13
g4
sb.(i__main__
DBEntry
p0
(dp1
S'player_cards'
p2
(lp3
S'3'
p4
aS'6'
p5
asS'rank'
p6
(dp7
S'double_down'
p8
F0.05782
sS'hit'
p9
F0.09065
sS'stand'
p10
F-0.29078
ssS'classification'
p11
(g9
F0.09065
tp12
sS'dealer_card'
p13
S'2'
p14
sb.(i__main__
DBEntry
p0
(dp1
S'player_cards'
p2
(lp3
S'4'
p4
aS'5'
p5
asS'rank'
p6
(dp7
S'double_down'
p8
F0.05516
sS'hit'
p9
F0.090855
sS'stand'
p10
F-0.29589
ssS'classification'
p11
(g9
F0.090855
tp12
sS'dealer_card'
p13
S'2'
p14
sb.(i__main__
DBEntry
p0
(dp1
S'player_cards'
p2
(lp3
S'2'
p4
aS'6'
p5
asS'rank'
p6
(dp7
S'double_down'
p8
F-1.16913
sS'hit'
p9
F-0.421725
sS'stand'
p10
F-0.76933
ssS'classification'
p11
(g9
F-0.421725
tp12
sS'dealer_card'
p13
S'A'
p14
sb.(i__main__
DBEntry
p0
(dp1
S'player_cards'
p2
(lp3
S'3'
p4
aS'5'
p5
asS'rank'
p6
(dp7
S'double_down'
p8
F-1.17607
sS'hit'
p9
F-0.41862
sS'stand'
p10
F-0.76646
ssS'classification'
p11
(g9
F-0.41862
tp12
sS'dealer_card'
p13
S'A'
p14
sb.(i__main__
DBEntry
p0
(dp1
S'player_cards'
p2
(lp3
S'2'
p4
aS'6'
p5
asS'rank'
p6
(dp7
S'double_down'
p8
F-0.84035
sS'hit'
p9
F-0.303895
sS'stand'
p10
F-0.57674
ssS'classification'
p11
(g9
F-0.303895
tp12
sS'dealer_card'
p13
S'10'
p14
sb.(i__main__
DBEntry
p0
(dp1
S'player_cards'
p2
(lp3
S'3'
p4
aS'5'
p5
asS'rank'
p6
(dp7
S'double_down'
p8
F-0.84201
sS'hit'
p9
F-0.299195
sS'stand'
p10
F-0.57231
ssS'classification'
p11
(g9
F-0.299195
tp12
sS'dealer_card'
p13
S'10'
p14
sb.(i__main__
DBEntry
p0
(dp1
S'player_cards'
p2
(lp3
S'2'
p4
aS'6'
p5
asS'rank'
p6
(dp7
S'double_down'
p8
F-0.71046
sS'hit'
p9
F-0.20015
sS'stand'
p10
F-0.54364
ssS'classification'
p11
(g9
F-0.20015
tp12
sS'dealer_card'
p13
S'9'
p14
sb.(i__main__
DBEntry
p0
(dp1
S'player_cards'
p2
(lp3
S'3'
p4
aS'5'
p5
asS'rank'
p6
(dp7
S'double_down'
p8
F-0.71728
sS'hit'
p9
F-0.204205
sS'stand'
p10
F-0.5417
ssS'classification'
p11
(g9
F-0.204205
tp12
sS'dealer_card'
p13
S'9'
p14
sb.(i__main__
DBEntry
p0
(dp1
S'player_cards'
p2
(lp3
S'2'
p4
aS'6'
p5
asS'rank'
p6
(dp7
S'double_down'
p8
F-0.44698
sS'hit'
p9
F-0.045635
sS'stand'
p10
F-0.5075
ssS'classification'
p11
(g9
F-0.045635
tp12
sS'dealer_card'
p13
S'8'
p14
sb.(i__main__
DBEntry
p0
(dp1
S'player_cards'
p2
(lp3
S'3'
p4
aS'5'
p5
asS'rank'
p6
(dp7
S'double_down'
p8
F-0.44857
sS'hit'
p9
F-0.041605
sS'stand'
p10
F-0.51052
ssS'classification'
p11
(g9
F-0.041605
tp12
sS'dealer_card'
p13
S'8'
p14
sb.(i__main__
DBEntry
p0
(dp1
S'player_cards'
p2
(lp3
S'2'
p4
aS'6'
p5
asS'rank'
p6
(dp7
S'double_down'
p8
F-0.18546
sS'hit'
p9
F0.10329
sS'stand'
p10
F-0.47478
ssS'classification'
p11
(g9
F0.10329
tp12
sS'dealer_card'
p13
S'7'
p14
sb.(i__main__
DBEntry
p0
(dp1
S'player_cards'
p2
(lp3
S'3'
p4
aS'5'
p5
asS'rank'
p6
(dp7
S'double_down'
p8
F-0.18571
sS'hit'
p9
F0.10529
sS'stand'
p10
F-0.4777
ssS'classification'
p11
(g9
F0.10529
tp12
sS'dealer_card'
p13
S'7'
p14
sb.(i__main__
DBEntry
p0
(dp1
S'player_cards'
p2
(lp3
S'2'
p4
aS'6'
p5
asS'rank'
p6
(dp7
S'double_down'
p8
F0.09167
sS'hit'
p9
F0.165105
sS'stand'
p10
F-0.15543
ssS'classification'
p11
(g9
F0.165105
tp12
sS'dealer_card'
p13
g5
sb.(i__main__
DBEntry
p0
(dp1
S'player_cards'
p2
(lp3
S'3'
p4
aS'5'
p5
asS'rank'
p6
(dp7
S'double_down'
p8
F0.08051
sS'hit'
p9
F0.160565
sS'stand'
p10
F-0.15434
ssS'classification'
p11
(g9
F0.160565
tp12
sS'dealer_card'
p13
S'6'
p14
sb.(i__main__
DBEntry
p0
(dp1
S'player_cards'
p2
(lp3
S'2'
p4
aS'6'
p5
asS'rank'
p6
(dp7
S'double_down'
p8
F0.00733
sS'hit'
p9
F0.108345
sS'stand'
p10
F-0.16738
ssS'classification'
p11
(g9
F0.108345
tp12
sS'dealer_card'
p13
S'5'
p14
sb.(i__main__
DBEntry
p0
(dp1
S'player_cards'
p2
(lp3
S'3'
p4
aS'5'
p5
asS'rank'
p6
(dp7
S'double_down'
p8
F0.00033
sS'hit'
p9
F0.115895
sS'stand'
p10
F-0.16913
ssS'classification'
p11
(g9
F0.115895
tp12
sS'dealer_card'
p13
g5
sb.(i__main__
DBEntry
p0
(dp1
S'player_cards'
p2
(lp3
S'2'
p4
aS'6'
p5
asS'rank'
p6
(dp7
S'double_down'
p8
F-0.07145
sS'hit'
p9
F0.07637
sS'stand'
p10
F-0.21077
ssS'classification'
p11
(g9
F0.07637
tp12
sS'dealer_card'
p13
S'4'
p14
sb.(i__main__
DBEntry
p0
(dp1
S'player_cards'
p2
(lp3
S'3'
p4
aS'5'
p5
asS'rank'
p6
(dp7
S'double_down'
p8
F-0.06784
sS'hit'
p9
F0.07663
sS'stand'
p10
F-0.2129
ssS'classification'
p11
(g9
F0.07663
tp12
sS'dealer_card'
p13
S'4'
p14
sb.(i__main__
DBEntry
p0
(dp1
S'player_cards'
p2
(lp3
S'2'
p4
aS'6'
p5
asS'rank'
p6
(dp7
S'double_down'
p8
F-0.14053
sS'hit'
p9
F0.04452
sS'stand'
p10
F-0.25075
ssS'classification'
p11
(g9
F0.04452
tp12
sS'dealer_card'
p13
S'3'
p14
sb.(i__main__
DBEntry
p0
(dp1
S'player_cards'
p2
(lp3
S'3'
p4
aS'5'
p5
asS'rank'
p6
(dp7
S'double_down'
p8
F-0.14664
sS'hit'
p9
F0.04399
sS'stand'
p10
F-0.25225
ssS'classification'
p11
(g9
F0.04399
tp12
sS'dealer_card'
p13
g4
sb.(i__main__
DBEntry
p0
(dp1
S'player_cards'
p2
(lp3
S'2'
p4
aS'6'
p5
asS'rank'
p6
(dp7
S'double_down'
p8
F-0.20294
sS'hit'
p9
F0.018215
sS'stand'
p10
F-0.29567
ssS'classification'
p11
(g9
F0.018215
tp12
sS'dealer_card'
p13
g4
sb.(i__main__
DBEntry
p0
(dp1
S'player_cards'
p2
(lp3
S'3'
p4
aS'5'
p5
asS'rank'
p6
(dp7
S'double_down'
p8
F-0.20309
sS'hit'
p9
F0.01269
sS'stand'
p10
F-0.29074
ssS'classification'
p11
(g9
F0.01269
tp12
sS'dealer_card'
p13
S'2'
p14
sb.(i__main__
DBEntry
p0
(dp1
S'player_cards'
p2
(lp3
S'2'
p4
aS'5'
p5
asS'rank'
p6
(dp7
S'double_down'
p8
F-1.39549
sS'hit'
p9
F-0.49966
sS'stand'
p10
F-0.769
ssS'classification'
p11
(g9
F-0.49966
tp12
sS'dealer_card'
p13
S'A'
p14
sb.(i__main__
DBEntry
p0
(dp1
S'player_cards'
p2
(lp3
S'3'
p4
aS'4'
p5
asS'rank'
p6
(dp7
S'double_down'
p8
F-1.39554
sS'hit'
p9
F-0.499725
sS'stand'
p10
F-0.77048
ssS'classification'
p11
(g9
F-0.499725
tp12
sS'dealer_card'
p13
S'A'
p14
sb.(i__main__
DBEntry
p0
(dp1
S'player_cards'
p2
(lp3
S'2'
p4
aS'5'
p5
asS'rank'
p6
(dp7
S'double_down'
p8
F-1.02532
sS'hit'
p9
F-0.36817
sS'stand'
p10
F-0.57683
ssS'classification'
p11
(g9
F-0.36817
tp12
sS'dealer_card'
p13
S'10'
p14
sb.(i__main__
DBEntry
p0
(dp1
S'player_cards'
p2
(lp3
S'3'
p4
aS'4'
p5
asS'rank'
p6
(dp7
S'double_down'
p8
F-1.03204
sS'hit'
p9
F-0.36916
sS'stand'
p10
F-0.57455
ssS'classification'
p11
(g9
F-0.36916
tp12
sS'dealer_card'
p13
S'10'
p14
sb.(i__main__
DBEntry
p0
(dp1
S'player_cards'
p2
(lp3
S'2'
p4
aS'5'
p5
asS'rank'
p6
(dp7
S'double_down'
p8
F-0.95646
sS'hit'
p9
F-0.2871
sS'stand'
p10
F-0.5445
ssS'classification'
p11
(g9
F-0.2871
tp12
sS'dealer_card'
p13
S'9'
p14
sb.(i__main__
DBEntry
p0
(dp1
S'player_cards'
p2
(lp3
S'3'
p4
aS'4'
p5
asS'rank'
p6
(dp7
S'double_down'
p8
F-0.95183
sS'hit'
p9
F-0.28282
sS'stand'
p10
F-0.54301
ssS'classification'
p11
(g9
F-0.28282
tp12
sS'dealer_card'
p13
S'9'
p14
sb.(i__main__
DBEntry
p0
(dp1
S'player_cards'
p2
(lp3
S'2'
p4
aS'5'
p5
asS'rank'
p6
(dp7
S'double_down'
p8
F-0.84154
sS'hit'
p9
F-0.194745
sS'stand'
p10
F-0.51243
ssS'classification'
p11
(g9
F-0.194745
tp12
sS'dealer_card'
p13
S'8'
p14
sb.(i__main__
DBEntry
p0
(dp1
S'player_cards'
p2
(lp3
S'3'
p4
aS'4'
p5
asS'rank'
p6
(dp7
S'double_down'
p8
F-0.84565
sS'hit'
p9
F-0.196125
sS'stand'
p10
F-0.51163
ssS'classification'
p11
(g9
F-0.196125
tp12
sS'dealer_card'
p13
S'8'
p14
sb.(i__main__
DBEntry
p0
(dp1
S'player_cards'
p2
(lp3
S'2'
p4
aS'5'
p5
asS'rank'
p6
(dp7
S'double_down'
p8
F-0.58168
sS'hit'
p9
F-0.046355
sS'stand'
p10
F-0.47615
ssS'classification'
p11
(g9
F-0.046355
tp12
sS'dealer_card'
p13
S'7'
p14
sb.(i__main__
DBEntry
p0
(dp1
S'player_cards'
p2
(lp3
S'3'
p4
aS'4'
p5
asS'rank'
p6
(dp7
S'double_down'
p8
F-0.59322
sS'hit'
p9
F-0.04296
sS'stand'
p10
F-0.47478
ssS'classification'
p11
(g9
F-0.04296
tp12
sS'dealer_card'
p13
S'7'
p14
sb.(i__main__
DBEntry
p0
(dp1
S'player_cards'
p2
(lp3
S'2'
p4
aS'5'
p5
asS'rank'
p6
(dp7
S'double_down'
p8
F-0.13602
sS'hit'
p9
F0.088995
sS'stand'
p10
F-0.157
ssS'classification'
p11
(g9
F0.088995
tp12
sS'dealer_card'
p13
S'6'
p14
sb.(i__main__
DBEntry
p0
(dp1
S'player_cards'
p2
(lp3
S'3'
p4
aS'4'
p5
asS'rank'
p6
(dp7
S'double_down'
p8
F-0.14097
sS'hit'
p9
F0.08542
sS'stand'
p10
F-0.15226
ssS'classification'
p11
(g9
F0.08542
tp12
sS'dealer_card'
p13
S'6'
p14
sb.(i__main__
DBEntry
p0
(dp1
S'player_cards'
p2
(lp3
S'2'
p4
aS'5'
p5
asS'rank'
p6
(dp7
S'double_down'
p8
F-0.19716
sS'hit'
p9
F0.041305
sS'stand'
p10
F-0.16453
ssS'classification'
p11
(g9
F0.041305
tp12
sS'dealer_card'
p13
g5
sb.(i__main__
DBEntry
p0
(dp1
S'player_cards'
p2
(lp3
S'3'
p4
aS'4'
p5
asS'rank'
p6
(dp7
S'double_down'
p8
F-0.20035
sS'hit'
p9
F0.045405
sS'stand'
p10
F-0.16758
ssS'classification'
p11
(g9
F0.045405
tp12
sS'dealer_card'
p13
S'5'
p14
sb.(i__main__
DBEntry
p0
(dp1
S'player_cards'
p2
(lp3
S'2'
p4
aS'5'
p5
asS'rank'
p6
(dp7
S'double_down'
p8
F-0.29069
sS'hit'
p9
F0.00102
sS'stand'
p10
F-0.20903
ssS'classification'
p11
(g9
F0.00102
tp12
sS'dealer_card'
p13
S'4'
p14
sb.(i__main__
DBEntry
p0
(dp1
S'player_cards'
p2
(lp3
S'3'
p4
aS'4'
p5
asS'rank'
p6
(dp7
S'double_down'
p8
F-0.28503
sS'hit'
p9
F0.00258
sS'stand'
p10
F-0.21043
ssS'classification'
p11
(g9
F0.00258
tp12
sS'dealer_card'
p13
g5
sb.(i__main__
DBEntry
p0
(dp1
S'player_cards'
p2
(lp3
S'2'
p4
aS'5'
p5
asS'rank'
p6
(dp7
S'double_down'
p8
F-0.35635
sS'hit'
p9
F-0.043855
sS'stand'
p10
F-0.24795
ssS'classification'
p11
(g9
F-0.043855
tp12
sS'dealer_card'
p13
S'3'
p14
sb.(i__main__
DBEntry
p0
(dp1
S'player_cards'
p2
(lp3
S'3'
p4
aS'4'
p5
asS'rank'
p6
(dp7
S'double_down'
p8
F-0.35377
sS'hit'
p9
F-0.041525
sS'stand'
p10
F-0.25267
ssS'classification'
p11
(g9
F-0.041525
tp12
sS'dealer_card'
p13
g4
sb.(i__main__
DBEntry
p0
(dp1
S'player_cards'
p2
(lp3
S'2'
p4
aS'5'
p5
asS'rank'
p6
(dp7
S'double_down'
p8
F-0.43477
sS'hit'
p9
F-0.073695
sS'stand'
p10
F-0.29542
ssS'classification'
p11
(g9
F-0.073695
tp12
sS'dealer_card'
p13
g4
sb.(i__main__
DBEntry
p0
(dp1
S'player_cards'
p2
(lp3
S'3'
p4
aS'4'
p5
asS'rank'
p6
(dp7
S'double_down'
p8
F-0.43494
sS'hit'
p9
F-0.07733
sS'stand'
p10
F-0.29144
ssS'classification'
p11
(g9
F-0.07733
tp12
sS'dealer_card'
p13
S'2'
p14
sb.(i__main__
DBEntry
p0
(dp1
S'player_cards'
p2
(lp3
S'2'
p4
aS'4'
p5
asS'rank'
p6
(dp7
S'double_down'
p8
F-1.51698
sS'hit'
p9
F-0.504165
sS'stand'
p10
F-0.76828
ssS'classification'
p11
(g9
F-0.504165
tp12
sS'dealer_card'
p13
S'A'
p14
sb.(i__main__
DBEntry
p0
(dp1
S'player_cards'
p2
(lp3
S'2'
p4
aS'4'
p5
asS'rank'
p6
(dp7
S'double_down'
p8
F-1.13747
sS'hit'
p9
F-0.395765
sS'stand'
p10
F-0.57553
ssS'classification'
p11
(g9
F-0.395765
tp12
sS'dealer_card'
p13
S'10'
p14
sb.(i__main__
DBEntry
p0
(dp1
S'player_cards'
p2
(lp3
S'2'
p4
aS'4'
p5
asS'rank'
p6
(dp7
S'double_down'
p8
F-1.06912
sS'hit'
p9
F-0.305005
sS'stand'
p10
F-0.54108
ssS'classification'
p11
(g9
F-0.305005
tp12
sS'dealer_card'
p13
S'9'
p14
sb.(i__main__
DBEntry
p0
(dp1
S'player_cards'
p2
(lp3
S'2'
p4
aS'4'
p5
asS'rank'
p6
(dp7
S'double_down'
p8
F-0.99679
sS'hit'
p9
F-0.22592
sS'stand'
p10
F-0.51007
ssS'classification'
p11
(g9
F-0.22592
tp12
sS'dealer_card'
p13
S'8'
p14
sb.(i__main__
DBEntry
p0
(dp1
S'player_cards'
p2
(lp3
S'2'
p4
aS'4'
p5
asS'rank'
p6
(dp7
S'double_down'
p8
F-0.8866
sS'hit'
p9
F-0.140625
sS'stand'
p10
F-0.47606
ssS'classification'
p11
(g9
F-0.140625
tp12
sS'dealer_card'
p13
S'7'
p14
sb.(i__main__
DBEntry
p0
(dp1
S'player_cards'
p2
(lp3
S'2'
p4
aS'4'
p5
asS'rank'
p6
(dp7
S'double_down'
p8
F-0.28561
sS'hit'
p9
F0.04062
sS'stand'
p10
F-0.15147
ssS'classification'
p11
(g9
F0.04062
tp12
sS'dealer_card'
p13
S'6'
p14
sb.(i__main__
DBEntry
p0
(dp1
S'player_cards'
p2
(lp3
S'2'
p4
aS'4'
p5
asS'rank'
p6
(dp7
S'double_down'
p8
F-0.31987
sS'hit'
p9
F0.012625
sS'stand'
p10
F-0.16635
ssS'classification'
p11
(g9
F0.012625
tp12
sS'dealer_card'
p13
S'5'
p14
sb.(i__main__
DBEntry
p0
(dp1
S'player_cards'
p2
(lp3
S'2'
p4
aS'4'
p5
asS'rank'
p6
(dp7
S'double_down'
p8
F-0.39581
sS'hit'
p9
F-0.039065
sS'stand'
p10
F-0.20811
ssS'classification'
p11
(g9
F-0.039065
tp12
sS'dealer_card'
p13
g5
sb.(i__main__
DBEntry
p0
(dp1
S'player_cards'
p2
(lp3
S'2'
p4
aS'4'
p5
asS'rank'
p6
(dp7
S'double_down'
p8
F-0.47908
sS'hit'
p9
F-0.07329
sS'stand'
p10
F-0.24977
ssS'classification'
p11
(g9
F-0.07329
tp12
sS'dealer_card'
p13
S'3'
p14
sb.(i__main__
DBEntry
p0
(dp1
S'player_cards'
p2
(lp3
S'2'
p4
aS'4'
p5
asS'rank'
p6
(dp7
S'double_down'
p8
F-0.55857
sS'hit'
p9
F-0.118175
sS'stand'
p10
F-0.29013
ssS'classification'
p11
(g9
F-0.118175
tp12
sS'dealer_card'
p13
g4
sb.(i__main__
DBEntry
p0
(dp1
S'player_cards'
p2
(lp3
S'2'
p4
aS'3'
p5
asS'rank'
p6
(dp7
S'double_down'
p8
F-1.544
sS'hit'
p9
F-0.46908
sS'stand'
p10
F-0.77011
ssS'classification'
p11
(g9
F-0.46908
tp12
sS'dealer_card'
p13
S'A'
p14
sb.(i__main__
DBEntry
p0
(dp1
S'player_cards'
p2
(lp3
S'2'
p4
aS'3'
p5
asS'rank'
p6
(dp7
S'double_down'
p8
F-1.14944
sS'hit'
p9
F-0.35706
sS'stand'
p10
F-0.57812
ssS'classification'
p11
(g9
F-0.35706
tp12
sS'dealer_card'
p13
S'10'
p14
sb.(i__main__
DBEntry
p0
(dp1
S'player_cards'
p2
(lp3
S'2'
p4
aS'3'
p5
asS'rank'
p6
(dp7
S'double_down'
p8
F-1.08004
sS'hit'
p9
F-0.258995
sS'stand'
p10
F-0.54263
ssS'classification'
p11
(g9
F-0.258995
tp12
sS'dealer_card'
p13
S'9'
p14
sb.(i__main__
DBEntry
p0
(dp1
S'player_cards'
p2
(lp3
S'2'
p4
aS'3'
p5
asS'rank'
p6
(dp7
S'double_down'
p8
F-1.02086
sS'hit'
p9
F-0.17003
sS'stand'
p10
F-0.50946
ssS'classification'
p11
(g9
F-0.17003
tp12
sS'dealer_card'
p13
S'8'
p14
sb.(i__main__
DBEntry
p0
(dp1
S'player_cards'
p2
(lp3
S'2'
p4
aS'3'
p5
asS'rank'
p6
(dp7
S'double_down'
p8
F-0.95128
sS'hit'
p9
F-0.08881
sS'stand'
p10
F-0.4733
ssS'classification'
p11
(g9
F-0.08881
tp12
sS'dealer_card'
p13
S'7'
p14
sb.(i__main__
DBEntry
p0
(dp1
S'player_cards'
p2
(lp3
S'2'
p4
aS'3'
p5
asS'rank'
p6
(dp7
S'double_down'
p8
F-0.3024
sS'hit'
p9
F0.04925
sS'stand'
p10
F-0.15345
ssS'classification'
p11
(g9
F0.04925
tp12
sS'dealer_card'
p13
S'6'
p14
sb.(i__main__
DBEntry
p0
(dp1
S'player_cards'
p2
(lp3
S'2'
p4
aS'3'
p5
asS'rank'
p6
(dp7
S'double_down'
p8
F-0.33074
sS'hit'
p9
F0.014185
sS'stand'
p10
F-0.16752
ssS'classification'
p11
(g9
F0.014185
tp12
sS'dealer_card'
p13
S'5'
p14
sb.(i__main__
DBEntry
p0
(dp1
S'player_cards'
p2
(lp3
S'2'
p4
aS'3'
p5
asS'rank'
p6
(dp7
S'double_down'
p8
F-0.41736
sS'hit'
p9
F-0.028115
sS'stand'
p10
F-0.2096
ssS'classification'
p11
(g9
F-0.028115
tp12
sS'dealer_card'
p13
S'4'
p14
sb.(i__main__
DBEntry
p0
(dp1
S'player_cards'
p2
(lp3
S'2'
p4
aS'3'
p5
asS'rank'
p6
(dp7
S'double_down'
p8
F-0.5097
sS'hit'
p9
F-0.073805
sS'stand'
p10
F-0.24971
ssS'classification'
p11
(g9
F-0.073805
tp12
sS'dealer_card'
p13
g5
sb.(i__main__
DBEntry
p0
(dp1
S'player_cards'
p2
(lp3
S'2'
p4
aS'3'
p5
asS'rank'
p6
(dp7
S'double_down'
p8
F-0.58028
sS'hit'
p9
F-0.11376
sS'stand'
p10
F-0.29736
ssS'classification'
p11
(g9
F-0.11376
tp12
sS'dealer_card'
p13
g4
sb.(i__main__
DBEntry
p0
(dp1
S'player_cards'
p2
(lp3
S'A'
p4
ag4
asS'rank'
p5
(dp6
S'double_down'
p7
F-1.00267
sS'hit'
p8
F-0.384655
sS'stand'
p9
F-0.77041
sS'split'
p10
F-0.10499
ssS'classification'
p11
(g10
F-0.10499
tp12
sS'dealer_card'
p13
g4
sb.(i__main__
DBEntry
p0
(dp1
S'player_cards'
p2
(lp3
S'A'
p4
ag4
asS'rank'
p5
(dp6
S'double_down'
p7
F-0.61364
sS'hit'
p8
F-0.205815
sS'stand'
p9
F-0.57442
sS'split'
p10
F0.235155
ssS'classification'
p11
(g10
F0.235155
tp12
sS'dealer_card'
p13
S'10'
p14
sb.(i__main__
DBEntry
p0
(dp1
S'player_cards'
p2
(lp3
S'A'
p4
ag4
asS'rank'
p5
(dp6
S'double_down'
p7
F-0.45011
sS'hit'
p8
F-0.104915
sS'stand'
p9
F-0.5457
sS'split'
p10
F0.43261
ssS'classification'
p11
(g10
F0.43261
tp12
sS'dealer_card'
p13
S'9'
p14
sb.(i__main__
DBEntry
p0
(dp1
S'player_cards'
p2
(lp3
S'A'
p4
ag4
asS'rank'
p5
(dp6
S'double_down'
p7
F-0.31919
sS'hit'
p8
F-0.019845
sS'stand'
p9
F-0.50767
sS'split'
p10
F0.572625
ssS'classification'
p11
(g10
F0.572625
tp12
sS'dealer_card'
p13
S'8'
p14
sb.(i__main__
DBEntry
p0
(dp1
S'player_cards'
p2
(lp3
S'A'
p4
ag4
asS'rank'
p5
(dp6
S'double_down'
p7
F-0.17745
sS'hit'
p8
F0.06426
sS'stand'
p9
F-0.47309
sS'split'
p10
F0.69403
ssS'classification'
p11
(g10
F0.69403
tp12
sS'dealer_card'
p13
S'7'
p14
sb.(i__main__
DBEntry
p0
(dp1
S'player_cards'
p2
(lp3
S'A'
p4
ag4
asS'rank'
p5
(dp6
S'double_down'
p7
F0.17998
sS'hit'
p8
F0.092635
sS'stand'
p9
F-0.15753
sS'split'
p10
F0.642075
ssS'classification'
p11
(g10
F0.642075
tp12
sS'dealer_card'
p13
S'6'
p14
sb.(i__main__
DBEntry
p0
(dp1
S'player_cards'
p2
(lp3
S'A'
p4
ag4
asS'rank'
p5
(dp6
S'double_down'
p7
F0.13161
sS'hit'
p8
F0.061985
sS'stand'
p9
F-0.16677
sS'split'
p10
F0.59606
ssS'classification'
p11
(g10
F0.59606
tp12
sS'dealer_card'
p13
S'5'
p14
sb.(i__main__
DBEntry
p0
(dp1
S'player_cards'
p2
(lp3
S'A'
p4
ag4
asS'rank'
p5
(dp6
S'double_down'
p7
F0.05668
sS'hit'
p8
F0.029335
sS'stand'
p9
F-0.20963
sS'split'
p10
F0.550215
ssS'classification'
p11
(g10
F0.550215
tp12
sS'dealer_card'
p13
S'4'
p14
sb.(i__main__
DBEntry
p0
(dp1
S'player_cards'
p2
(lp3
S'A'
p4
ag4
asS'rank'
p5
(dp6
S'double_down'
p7
F-0.00094
sS'hit'
p8
F-0.004395
sS'stand'
p9
F-0.25393
sS'split'
p10
F0.494605
ssS'classification'
p11
(g10
F0.494605
tp12
sS'dealer_card'
p13
S'3'
p14
sb.(i__main__
DBEntry
p0
(dp1
S'player_cards'
p2
(lp3
S'A'
p4
ag4
asS'rank'
p5
(dp6
S'double_down'
p7
F-0.0654
sS'hit'
p8
F-0.035165
sS'stand'
p9
F-0.28974
sS'split'
p10
F0.4506
ssS'classification'
p11
(g10
F0.4506
tp12
sS'dealer_card'
p13
S'2'
p14
sb.(i__main__
DBEntry
p0
(dp1
S'player_cards'
p2
(lp3
S'10'
p4
ag4
asS'rank'
p5
(dp6
S'double_down'
p7
F-1.74779
sS'hit'
p8
F-0.872305
sS'stand'
p9
F0.145665
sS'split'
p10
F-0.314335
ssS'classification'
p11
(g9
F0.145665
tp12
sS'dealer_card'
p13
S'A'
p14
sb.(i__main__
DBEntry
p0
(dp1
S'player_cards'
p2
(lp3
S'10'
p4
ag4
asS'rank'
p5
(dp6
S'double_down'
p7
F-1.70428
sS'hit'
p8
F-0.853805
sS'stand'
p9
F0.43407
sS'split'
p10
F-0.080185
ssS'classification'
p11
(g9
F0.43407
tp12
sS'dealer_card'
p13
g4
sb.(i__main__
DBEntry
p0
(dp1
S'player_cards'
p2
(lp3
S'10'
p4
ag4
asS'rank'
p5
(dp6
S'double_down'
p7
F-1.70406
sS'hit'
p8
F-0.849495
sS'stand'
p9
F0.75966
sS'split'
p10
F0.07409
ssS'classification'
p11
(g9
F0.75966
tp12
sS'dealer_card'
p13
S'9'
p14
sb.(i__main__
DBEntry
p0
(dp1
S'player_cards'
p2
(lp3
S'10'
p4
ag4
asS'rank'
p5
(dp6
S'double_down'
p7
F-1.70401
sS'hit'
p8
F-0.85209
sS'stand'
p9
F0.791345
sS'split'
p10
F0.156395
ssS'classification'
p11
(g9
F0.791345
tp12
sS'dealer_card'
p13
S'8'
p14
sb.(i__main__
DBEntry
p0
(dp1
S'player_cards'
p2
(lp3
S'10'
p4
ag4
asS'rank'
p5
(dp6
S'double_down'
p7
F-1.70036
sS'hit'
p8
F-0.85065
sS'stand'
p9
F0.771885
sS'split'
p10
F0.20911
ssS'classification'
p11
(g9
F0.771885
tp12
sS'dealer_card'
p13
S'7'
p14
sb.(i__main__
DBEntry
p0
(dp1
S'player_cards'
p2
(lp3
S'10'
p4
ag4
asS'rank'
p5
(dp6
S'double_down'
p7
F-1.70623
sS'hit'
p8
F-0.8517
sS'stand'
p9
F0.705425
sS'split'
p10
F0.309985
ssS'classification'
p11
(g9
F0.705425
tp12
sS'dealer_card'
p13
S'6'
p14
sb.(i__main__
DBEntry
p0
(dp1
S'player_cards'
p2
(lp3
S'10'
p4
ag4
asS'rank'
p5
(dp6
S'double_down'
p7
F-1.71058
sS'hit'
p8
F-0.85461
sS'stand'
p9
F0.67028
sS'split'
p10
F0.273765
ssS'classification'
p11
(g9
F0.67028
tp12
sS'dealer_card'
p13
S'5'
p14
sb.(i__main__
DBEntry
p0
(dp1
S'player_cards'
p2
(lp3
S'10'
p4
ag4
asS'rank'
p5
(dp6
S'double_down'
p7
F-1.70679
sS'hit'
p8
F-0.853575
sS'stand'
p9
F0.65933
sS'split'
p10
F0.250775
ssS'classification'
p11
(g9
F0.65933
tp12
sS'dealer_card'
p13
S'4'
p14
sb.(i__main__
DBEntry
p0
(dp1
S'player_cards'
p2
(lp3
S'10'
p4
ag4
asS'rank'
p5
(dp6
S'double_down'
p7
F-1.70535
sS'hit'
p8
F-0.85422
sS'stand'
p9
F0.654225
sS'split'
p10
F0.219405
ssS'classification'
p11
(g9
F0.654225
tp12
sS'dealer_card'
p13
S'3'
p14
sb.(i__main__
DBEntry
p0
(dp1
S'player_cards'
p2
(lp3
S'10'
p4
ag4
asS'rank'
p5
(dp6
S'double_down'
p7
F-1.71108
sS'hit'
p8
F-0.85641
sS'stand'
p9
F0.63908
sS'split'
p10
F0.195055
ssS'classification'
p11
(g9
F0.63908
tp12
sS'dealer_card'
p13
S'2'
p14
sb.(i__main__
DBEntry
p0
(dp1
S'player_cards'
p2
(lp3
S'9'
p4
ag4
asS'rank'
p5
(dp6
S'double_down'
p7
F-1.43363
sS'hit'
p8
F-0.71388
sS'stand'
p9
F-0.37978
sS'split'
p10
F-0.635185
ssS'classification'
p11
(g9
F-0.37978
tp12
sS'dealer_card'
p13
S'A'
p14
sb.(i__main__
DBEntry
p0
(dp1
S'player_cards'
p2
(lp3
S'9'
p4
ag4
asS'rank'
p5
(dp6
S'double_down'
p7
F-1.33744
sS'hit'
p8
F-0.66856
sS'stand'
p9
F-0.24028
sS'split'
p10
F-0.40903
ssS'classification'
p11
(g9
F-0.24028
tp12
sS'dealer_card'
p13
S'10'
p14
sb.(i__main__
DBEntry
p0
(dp1
S'player_cards'
p2
(lp3
S'9'
p4
ag4
asS'rank'
p5
(dp6
S'double_down'
p7
F-1.23026
sS'hit'
p8
F-0.615445
sS'stand'
p9
F-0.1836
sS'split'
p10
F-0.208365
ssS'classification'
p11
(g9
F-0.1836
tp12
sS'dealer_card'
p13
g4
sb.(i__main__
DBEntry
p0
(dp1
S'player_cards'
p2
(lp3
S'9'
p4
ag4
asS'rank'
p5
(dp6
S'double_down'
p7
F-1.18357
sS'hit'
p8
F-0.59009
sS'stand'
p9
F0.106725
sS'split'
p10
F-0.015105
ssS'classification'
p11
(g9
F0.106725
tp12
sS'dealer_card'
p13
S'8'
p14
sb.(i__main__
DBEntry
p0
(dp1
S'player_cards'
p2
(lp3
S'9'
p4
ag4
asS'rank'
p5
(dp6
S'double_down'
p7
F-1.18582
sS'hit'
p8
F-0.589065
sS'stand'
p9
F0.396805
sS'split'
p10
F0.075425
ssS'classification'
p11
(g9
F0.396805
tp12
sS'dealer_card'
p13
S'7'
p14
sb.(i__main__
DBEntry
p0
(dp1
S'player_cards'
p2
(lp3
S'9'
p4
ag4
asS'rank'
p5
(dp6
S'double_down'
p7
F-1.21382
sS'hit'
p8
F-0.60914
sS'stand'
p9
F0.28277
sS'split'
p10
F0.22035
ssS'classification'
p11
(g9
F0.28277
tp12
sS'dealer_card'
p13
S'6'
p14
sb.(i__main__
DBEntry
p0
(dp1
S'player_cards'
p2
(lp3
S'9'
p4
ag4
asS'rank'
p5
(dp6
S'double_down'
p7
F-1.23253
sS'hit'
p8
F-0.61662
sS'stand'
p9
F0.202765
sS'split'
p10
F0.167945
ssS'classification'
p11
(g9
F0.202765
tp12
sS'dealer_card'
p13
S'5'
p14
sb.(i__main__
DBEntry
p0
(dp1
S'player_cards'
p2
(lp3
S'9'
p4
ag4
asS'rank'
p5
(dp6
S'double_down'
p7
F-1.23888
sS'hit'
p8
F-0.6148
sS'stand'
p9
F0.17777
sS'split'
p10
F0.12295
ssS'classification'
p11
(g9
F0.17777
tp12
sS'dealer_card'
p13
S'4'
p14
sb.(i__main__
DBEntry
p0
(dp1
S'player_cards'
p2
(lp3
S'9'
p4
ag4
asS'rank'
p5
(dp6
S'double_down'
p7
F-1.24145
sS'hit'
p8
F-0.62171
sS'stand'
p9
F0.14902
sS'split'
p10
F0.085385
ssS'classification'
p11
(g9
F0.14902
tp12
sS'dealer_card'
p13
S'3'
p14
sb.(i__main__
DBEntry
p0
(dp1
S'player_cards'
p2
(lp3
S'9'
p4
ag4
asS'rank'
p5
(dp6
S'double_down'
p7
F-1.24565
sS'hit'
p8
F-0.621285
sS'stand'
p9
F0.12644
sS'split'
p10
F0.041955
ssS'classification'
p11
(g9
F0.12644
tp12
sS'dealer_card'
p13
S'2'
p14
sb.(i__main__
DBEntry
p0
(dp1
S'player_cards'
p2
(lp3
S'8'
p4
ag4
asS'rank'
p5
(dp6
S'double_down'
p7
F-1.2798
sS'hit'
p8
F-0.640925
sS'stand'
p9
F-0.77144
sS'split'
p10
F-0.859785
ssS'classification'
p11
(g8
F-0.640925
tp12
sS'dealer_card'
p13
S'A'
p14
sb.(i__main__
DBEntry
p0
(dp1
S'player_cards'
p2
(lp3
S'8'
p4
ag4
asS'rank'
p5
(dp6
S'double_down'
p7
F-1.13651
sS'hit'
p8
F-0.569655
sS'stand'
p9
F-0.57499
sS'split'
p10
F-0.612845
ssS'classification'
p11
(g8
F-0.569655
tp12
sS'dealer_card'
p13
S'10'
p14
sb.(i__main__
DBEntry
p0
(dp1
S'player_cards'
p2
(lp3
S'8'
p4
ag4
asS'rank'
p5
(dp6
S'double_down'
p7
F-1.01275
sS'hit'
p8
F-0.511145
sS'stand'
p9
F-0.54259
sS'split'
p10
F-0.53026
ssS'classification'
p11
(g8
F-0.511145
tp12
sS'dealer_card'
p13
S'9'
p14
sb.(i__main__
DBEntry
p0
(dp1
S'player_cards'
p2
(lp3
S'8'
p4
ag4
asS'rank'
p5
(dp6
S'double_down'
p7
F-0.91599
sS'hit'
p8
F-0.457015
sS'stand'
p9
F-0.51159
sS'split'
p10
F-0.326655
ssS'classification'
p11
(g10
F-0.326655
tp12
sS'dealer_card'
p13
g4
sb.(i__main__
DBEntry
p0
(dp1
S'player_cards'
p2
(lp3
S'8'
p4
ag4
asS'rank'
p5
(dp6
S'double_down'
p7
F-0.83308
sS'hit'
p8
F-0.414725
sS'stand'
p9
F-0.47583
sS'split'
p10
F-0.136785
ssS'classification'
p11
(g10
F-0.136785
tp12
sS'dealer_card'
p13
S'7'
p14
sb.(i__main__
DBEntry
p0
(dp1
S'player_cards'
p2
(lp3
S'8'
p4
ag4
asS'rank'
p5
(dp6
S'double_down'
p7
F-0.85417
sS'hit'
p8
F-0.430165
sS'stand'
p9
F-0.14718
sS'split'
p10
F0.063855
ssS'classification'
p11
(g10
F0.063855
tp12
sS'dealer_card'
p13
S'6'
p14
sb.(i__main__
DBEntry
p0
(dp1
S'player_cards'
p2
(lp3
S'8'
p4
ag4
asS'rank'
p5
(dp6
S'double_down'
p7
F-0.90188
sS'hit'
p8
F-0.45089
sS'stand'
p9
F-0.16672
sS'split'
p10
F-0.000635
ssS'classification'
p11
(g10
F-0.000635
tp12
sS'dealer_card'
p13
S'5'
p14
sb.(i__main__
DBEntry
p0
(dp1
S'player_cards'
p2
(lp3
S'8'
p4
ag4
asS'rank'
p5
(dp6
S'double_down'
p7
F-0.912
sS'hit'
p8
F-0.457245
sS'stand'
p9
F-0.21005
sS'split'
p10
F-0.047765
ssS'classification'
p11
(g10
F-0.047765
tp12
sS'dealer_card'
p13
S'4'
p14
sb.(i__main__
DBEntry
p0
(dp1
S'player_cards'
p2
(lp3
S'8'
p4
ag4
asS'rank'
p5
(dp6
S'double_down'
p7
F-0.93008
sS'hit'
p8
F-0.46105
sS'stand'
p9
F-0.25365
sS'split'
p10
F-0.10303
ssS'classification'
p11
(g10
F-0.10303
tp12
sS'dealer_card'
p13
S'3'
p14
sb.(i__main__
DBEntry
p0
(dp1
S'player_cards'
p2
(lp3
S'8'
p4
ag4
asS'rank'
p5
(dp6
S'double_down'
p7
F-0.93674
sS'hit'
p8
F-0.470395
sS'stand'
p9
F-0.29292
sS'split'
p10
F-0.14357
ssS'classification'
p11
(g10
F-0.14357
tp12
sS'dealer_card'
p13
S'2'
p14
sb.(i__main__
DBEntry
p0
(dp1
S'player_cards'
p2
(lp3
S'7'
p4
ag4
asS'rank'
p5
(dp6
S'double_down'
p7
F-1.21633
sS'hit'
p8
F-0.58462
sS'stand'
p9
F-0.76989
sS'split'
p10
F-0.967045
ssS'classification'
p11
(g8
F-0.58462
tp12
sS'dealer_card'
p13
S'A'
p14
sb.(i__main__
DBEntry
p0
(dp1
S'player_cards'
p2
(lp3
S'7'
p4
ag4
asS'rank'
p5
(dp6
S'double_down'
p7
F-1.01055
sS'hit'
p8
F-0.50218
sS'stand'
p9
F-0.57758
sS'split'
p10
F-0.734505
ssS'classification'
p11
(g8
F-0.50218
tp12
sS'dealer_card'
p13
S'10'
p14
sb.(i__main__
DBEntry
p0
(dp1
S'player_cards'
p2
(lp3
S'7'
p4
ag4
asS'rank'
p5
(dp6
S'double_down'
p7
F-0.88007
sS'hit'
p8
F-0.42917
sS'stand'
p9
F-0.54064
sS'split'
p10
F-0.67598
ssS'classification'
p11
(g8
F-0.42917
tp12
sS'dealer_card'
p13
S'9'
p14
sb.(i__main__
DBEntry
p0
(dp1
S'player_cards'
p2
(lp3
S'7'
p4
ag4
asS'rank'
p5
(dp6
S'double_down'
p7
F-0.76526
sS'hit'
p8
F-0.373765
sS'stand'
p9
F-0.51279
sS'split'
p10
F-0.594095
ssS'classification'
p11
(g8
F-0.373765
tp12
sS'dealer_card'
p13
S'8'
p14
sb.(i__main__
DBEntry
p0
(dp1
S'player_cards'
p2
(lp3
S'7'
p4
ag4
asS'rank'
p5
(dp6
S'double_down'
p7
F-0.66145
sS'hit'
p8
F-0.32152
sS'stand'
p9
F-0.47455
sS'split'
p10
F-0.40485
ssS'classification'
p11
(g8
F-0.32152
tp12
sS'dealer_card'
p13
g4
sb.(i__main__
DBEntry
p0
(dp1
S'player_cards'
p2
(lp3
S'7'
p4
ag4
asS'rank'
p5
(dp6
S'double_down'
p7
F-0.59576
sS'hit'
p8
F-0.29995
sS'stand'
p9
F-0.1536
sS'split'
p10
F-0.110255
ssS'classification'
p11
(g10
F-0.110255
tp12
sS'dealer_card'
p13
S'6'
p14
sb.(i__main__
DBEntry
p0
(dp1
S'player_cards'
p2
(lp3
S'7'
p4
ag4
asS'rank'
p5
(dp6
S'double_down'
p7
F-0.64098
sS'hit'
p8
F-0.318675
sS'stand'
p9
F-0.16908
sS'split'
p10
F-0.14934
ssS'classification'
p11
(g10
F-0.14934
tp12
sS'dealer_card'
p13
S'5'
p14
sb.(i__main__
DBEntry
p0
(dp1
S'player_cards'
p2
(lp3
S'7'
p4
ag4
asS'rank'
p5
(dp6
S'double_down'
p7
F-0.67134
sS'hit'
p8
F-0.33389
sS'stand'
p9
F-0.20787
sS'split'
p10
F-0.21702
ssS'classification'
p11
(g9
F-0.20787
tp12
sS'dealer_card'
p13
S'4'
p14
sb.(i__main__
DBEntry
p0
(dp1
S'player_cards'
p2
(lp3
S'7'
p4
ag4
asS'rank'
p5
(dp6
S'double_down'
p7
F-0.69562
sS'hit'
p8
F-0.346855
sS'stand'
p9
F-0.24943
sS'split'
p10
F-0.275595
ssS'classification'
p11
(g9
F-0.24943
tp12
sS'dealer_card'
p13
S'3'
p14
sb.(i__main__
DBEntry
p0
(dp1
S'player_cards'
p2
(lp3
S'7'
p4
ag4
asS'rank'
p5
(dp6
S'double_down'
p7
F-0.72489
sS'hit'
p8
F-0.36198
sS'stand'
p9
F-0.29471
sS'split'
p10
F-0.335695
ssS'classification'
p11
(g9
F-0.29471
tp12
sS'dealer_card'
p13
S'2'
p14
sb.(i__main__
DBEntry
p0
(dp1
S'player_cards'
p2
(lp3
S'6'
p4
ag4
asS'rank'
p5
(dp6
S'double_down'
p7
F-1.14253
sS'hit'
p8
F-0.51958
sS'stand'
p9
F-0.7677
sS'split'
p10
F-0.847705
ssS'classification'
p11
(g8
F-0.51958
tp12
sS'dealer_card'
p13
S'A'
p14
sb.(i__main__
DBEntry
p0
(dp1
S'player_cards'
p2
(lp3
S'6'
p4
ag4
asS'rank'
p5
(dp6
S'double_down'
p7
F-0.8803
sS'hit'
p8
F-0.4198
sS'stand'
p9
F-0.57587
sS'split'
p10
F-0.68926
ssS'classification'
p11
(g8
F-0.4198
tp12
sS'dealer_card'
p13
S'10'
p14
sb.(i__main__
DBEntry
p0
(dp1
S'player_cards'
p2
(lp3
S'6'
p4
ag4
asS'rank'
p5
(dp6
S'double_down'
p7
F-0.74274
sS'hit'
p8
F-0.339165
sS'stand'
p9
F-0.54481
sS'split'
p10
F-0.6232
ssS'classification'
p11
(g8
F-0.339165
tp12
sS'dealer_card'
p13
S'9'
p14
sb.(i__main__
DBEntry
p0
(dp1
S'player_cards'
p2
(lp3
S'6'
p4
ag4
asS'rank'
p5
(dp6
S'double_down'
p7
F-0.61777
sS'hit'
p8
F-0.27306
sS'stand'
p9
F-0.50863
sS'split'
p10
F-0.567325
ssS'classification'
p11
(g8
F-0.27306
tp12
sS'dealer_card'
p13
S'8'
p14
sb.(i__main__
DBEntry
p0
(dp1
S'player_cards'
p2
(lp3
S'6'
p4
ag4
asS'rank'
p5
(dp6
S'double_down'
p7
F-0.51088
sS'hit'
p8
F-0.21715
sS'stand'
p9
F-0.47778
sS'split'
p10
F-0.490035
ssS'classification'
p11
(g8
F-0.21715
tp12
sS'dealer_card'
p13
S'7'
p14
sb.(i__main__
DBEntry
p0
(dp1
S'player_cards'
p2
(lp3
S'6'
p4
ag4
asS'rank'
p5
(dp6
S'double_down'
p7
F-0.34042
sS'hit'
p8
F-0.16991
sS'stand'
p9
F-0.1544
sS'split'
p10
F-0.22063
ssS'classification'
p11
(g9
F-0.1544
tp12
sS'dealer_card'
p13
g4
sb.(i__main__
DBEntry
p0
(dp1
S'player_cards'
p2
(lp3
S'6'
p4
ag4
asS'rank'
p5
(dp6
S'double_down'
p7
F-0.38939
sS'hit'
p8
F-0.195995
sS'stand'
p9
F-0.16309
sS'split'
p10
F-0.24922
ssS'classification'
p11
(g9
F-0.16309
tp12
sS'dealer_card'
p13
S'5'
p14
sb.(i__main__
DBEntry
p0
(dp1
S'player_cards'
p2
(lp3
S'6'
p4
ag4
asS'rank'
p5
(dp6
S'double_down'
p7
F-0.42044
sS'hit'
p8
F-0.209445
sS'stand'
p9
F-0.2107
sS'split'
p10
F-0.32744
ssS'classification'
p11
(g8
F-0.209445
tp12
sS'dealer_card'
p13
S'4'
p14
sb.(i__main__
DBEntry
p0
(dp1
S'player_cards'
p2
(lp3
S'6'
p4
ag4
asS'rank'
p5
(dp6
S'double_down'
p7
F-0.47087
sS'hit'
p8
F-0.23479
sS'stand'
p9
F-0.2535
sS'split'
p10
F-0.390105
ssS'classification'
p11
(g8
F-0.23479
tp12
sS'dealer_card'
p13
S'3'
p14
sb.(i__main__
DBEntry
p0
(dp1
S'player_cards'
p2
(lp3
S'6'
p4
ag4
asS'rank'
p5
(dp6
S'double_down'
p7
F-0.50341
sS'hit'
p8
F-0.254515
sS'stand'
p9
F-0.2909
sS'split'
p10
F-0.45623
ssS'classification'
p11
(g8
F-0.254515
tp12
sS'dealer_card'
p13
S'2'
p14
sb.(i__main__
DBEntry
p0
(dp1
S'player_cards'
p2
(lp3
S'5'
p4
ag4
asS'rank'
p5
(dp6
S'double_down'
p7
F-0.56762
sS'hit'
p8
F-0.21771
sS'stand'
p9
F-0.76846
sS'split'
p10
F-0.745525
ssS'classification'
p11
(g8
F-0.21771
tp12
sS'dealer_card'
p13
S'A'
p14
sb.(i__main__
DBEntry
p0
(dp1
S'player_cards'
p2
(lp3
S'5'
p4
ag4
asS'rank'
p5
(dp6
S'double_down'
p7
F-0.1505
sS'hit'
p8
F-0.04705
sS'stand'
p9
F-0.57655
sS'split'
p10
F-0.616385
ssS'classification'
p11
(g8
F-0.04705
tp12
sS'dealer_card'
p13
S'10'
p14
sb.(i__main__
DBEntry
p0
(dp1
S'player_cards'
p2
(lp3
S'5'
p4
ag4
asS'rank'
p5
(dp6
S'double_down'
p7
F0.14588
sS'hit'
p8
F0.116985
sS'stand'
p9
F-0.54359
sS'split'
p10
F-0.518925
ssS'classification'
p11
(g7
F0.14588
tp12
sS'dealer_card'
p13
S'9'
p14
sb.(i__main__
DBEntry
p0
(dp1
S'player_cards'
p2
(lp3
S'5'
p4
ag4
asS'rank'
p5
(dp6
S'double_down'
p7
F0.29324
sS'hit'
p8
F0.19383
sS'stand'
p9
F-0.50893
sS'split'
p10
F-0.44738
ssS'classification'
p11
(g7
F0.29324
tp12
sS'dealer_card'
p13
S'8'
p14
sb.(i__main__
DBEntry
p0
(dp1
S'player_cards'
p2
(lp3
S'5'
p4
ag4
asS'rank'
p5
(dp6
S'double_down'
p7
F0.40176
sS'hit'
p8
F0.25913
sS'stand'
p9
F-0.47537
sS'split'
p10
F-0.381695
ssS'classification'
p11
(g7
F0.40176
tp12
sS'dealer_card'
p13
S'7'
p14
sb.(i__main__
DBEntry
p0
(dp1
S'player_cards'
p2
(lp3
S'5'
p4
ag4
asS'rank'
p5
(dp6
S'double_down'
p7
F0.57314
sS'hit'
p8
F0.286575
sS'stand'
p9
F-0.15116
sS'split'
p10
F-0.15323
ssS'classification'
p11
(g7
F0.57314
tp12
sS'dealer_card'
p13
S'6'
p14
sb.(i__main__
DBEntry
p0
(dp1
S'player_cards'
p2
(lp3
S'5'
p4
ag4
asS'rank'
p5
(dp6
S'double_down'
p7
F0.50936
sS'hit'
p8
F0.255635
sS'stand'
p9
F-0.1698
sS'split'
p10
F-0.18007
ssS'classification'
p11
(g7
F0.50936
tp12
sS'dealer_card'
p13
g4
sb.(i__main__
DBEntry
p0
(dp1
S'player_cards'
p2
(lp3
S'5'
p4
ag4
asS'rank'
p5
(dp6
S'double_down'
p7
F0.45948
sS'hit'
p8
F0.23426
sS'stand'
p9
F-0.2063
sS'split'
p10
F-0.24762
ssS'classification'
p11
(g7
F0.45948
tp12
sS'dealer_card'
p13
S'4'
p14
sb.(i__main__
DBEntry
p0
(dp1
S'player_cards'
p2
(lp3
S'5'
p4
ag4
asS'rank'
p5
(dp6
S'double_down'
p7
F0.41527
sS'hit'
p8
F0.20707
sS'stand'
p9
F-0.25095
sS'split'
p10
F-0.318875
ssS'classification'
p11
(g7
F0.41527
tp12
sS'dealer_card'
p13
S'3'
p14
sb.(i__main__
DBEntry
p0
(dp1
S'player_cards'
p2
(lp3
S'5'
p4
ag4
asS'rank'
p5
(dp6
S'double_down'
p7
F0.35392
sS'hit'
p8
F0.1843
sS'stand'
p9
F-0.29067
sS'split'
p10
F-0.37575
ssS'classification'
p11
(g7
F0.35392
tp12
sS'dealer_card'
p13
S'2'
p14
sb.(i__main__
DBEntry
p0
(dp1
S'player_cards'
p2
(lp3
S'4'
p4
ag4
asS'rank'
p5
(dp6
S'double_down'
p7
F-1.18297
sS'hit'
p8
F-0.423985
sS'stand'
p9
F-0.7706
sS'split'
p10
F-0.712415
ssS'classification'
p11
(g8
F-0.423985
tp12
sS'dealer_card'
p13
S'A'
p14
sb.(i__main__
DBEntry
p0
(dp1
S'player_cards'
p2
(lp3
S'4'
p4
ag4
asS'rank'
p5
(dp6
S'double_down'
p7
F-0.84502
sS'hit'
p8
F-0.3006
sS'stand'
p9
F-0.57518
sS'split'
p10
F-0.541345
ssS'classification'
p11
(g8
F-0.3006
tp12
sS'dealer_card'
p13
S'10'
p14
sb.(i__main__
DBEntry
p0
(dp1
S'player_cards'
p2
(lp3
S'4'
p4
ag4
asS'rank'
p5
(dp6
S'double_down'
p7
F-0.72093
sS'hit'
p8
F-0.201405
sS'stand'
p9
F-0.546
sS'split'
p10
F-0.42802
ssS'classification'
p11
(g8
F-0.201405
tp12
sS'dealer_card'
p13
S'9'
p14
sb.(i__main__
DBEntry
p0
(dp1
S'player_cards'
p2
(lp3
S'4'
p4
ag4
asS'rank'
p5
(dp6
S'double_down'
p7
F-0.45
sS'hit'
p8
F-0.039405
sS'stand'
p9
F-0.50998
sS'split'
p10
F-0.31561
ssS'classification'
p11
(g8
F-0.039405
tp12
sS'dealer_card'
p13
S'8'
p14
sb.(i__main__
DBEntry
p0
(dp1
S'player_cards'
p2
(lp3
S'4'
p4
ag4
asS'rank'
p5
(dp6
S'double_down'
p7
F-0.18888
sS'hit'
p8
F0.10511
sS'stand'
p9
F-0.47696
sS'split'
p10
F-0.234465
ssS'classification'
p11
(g8
F0.10511
tp12
sS'dealer_card'
p13
S'7'
p14
sb.(i__main__
DBEntry
p0
(dp1
S'player_cards'
p2
(lp3
S'4'
p4
ag4
asS'rank'
p5
(dp6
S'double_down'
p7
F0.08005
sS'hit'
p8
F0.16421
sS'stand'
p9
F-0.15562
sS'split'
p10
F-5.5e-05
ssS'classification'
p11
(g8
F0.16421
tp12
sS'dealer_card'
p13
S'6'
p14
sb.(i__main__
DBEntry
p0
(dp1
S'player_cards'
p2
(lp3
S'4'
p4
ag4
asS'rank'
p5
(dp6
S'double_down'
p7
F0.00334
sS'hit'
p8
F0.12019
sS'stand'
p9
F-0.16789
sS'split'
p10
F-0.03606
ssS'classification'
p11
(g8
F0.12019
tp12
sS'dealer_card'
p13
S'5'
p14
sb.(i__main__
DBEntry
p0
(dp1
S'player_cards'
p2
(lp3
S'4'
p4
ag4
asS'rank'
p5
(dp6
S'double_down'
p7
F-0.06627
sS'hit'
p8
F0.083155
sS'stand'
p9
F-0.21076
sS'split'
p10
F-0.12002
ssS'classification'
p11
(g8
F0.083155
tp12
sS'dealer_card'
p13
g4
sb.(i__main__
DBEntry
p0
(dp1
S'player_cards'
p2
(lp3
S'4'
p4
ag4
asS'rank'
p5
(dp6
S'double_down'
p7
F-0.13688
sS'hit'
p8
F0.041705
sS'stand'
p9
F-0.24932
sS'split'
p10
F-0.19898
ssS'classification'
p11
(g8
F0.041705
tp12
sS'dealer_card'
p13
S'3'
p14
sb.(i__main__
DBEntry
p0
(dp1
S'player_cards'
p2
(lp3
S'4'
p4
ag4
asS'rank'
p5
(dp6
S'double_down'
p7
F-0.19971
sS'hit'
p8
F0.00724
sS'stand'
p9
F-0.29471
sS'split'
p10
F-0.258455
ssS'classification'
p11
(g8
F0.00724
tp12
sS'dealer_card'
p13
S'2'
p14
sb.(i__main__
DBEntry
p0
(dp1
S'player_cards'
p2
(lp3
S'3'
p4
ag4
asS'rank'
p5
(dp6
S'double_down'
p7
F-1.51479
sS'hit'
p8
F-0.503765
sS'stand'
p9
F-0.76846
sS'split'
p10
F-0.692935
ssS'classification'
p11
(g8
F-0.503765
tp12
sS'dealer_card'
p13
S'A'
p14
sb.(i__main__
DBEntry
p0
(dp1
S'player_cards'
p2
(lp3
S'3'
p4
ag4
asS'rank'
p5
(dp6
S'double_down'
p7
F-1.13734
sS'hit'
p8
F-0.398295
sS'stand'
p9
F-0.57399
sS'split'
p10
F-0.51878
ssS'classification'
p11
(g8
F-0.398295
tp12
sS'dealer_card'
p13
S'10'
p14
sb.(i__main__
DBEntry
p0
(dp1
S'player_cards'
p2
(lp3
S'3'
p4
ag4
asS'rank'
p5
(dp6
S'double_down'
p7
F-1.07189
sS'hit'
p8
F-0.304165
sS'stand'
p9
F-0.54223
sS'split'
p10
F-0.377295
ssS'classification'
p11
(g8
F-0.304165
tp12
sS'dealer_card'
p13
S'9'
p14
sb.(i__main__
DBEntry
p0
(dp1
S'player_cards'
p2
(lp3
S'3'
p4
ag4
asS'rank'
p5
(dp6
S'double_down'
p7
F-1.00035
sS'hit'
p8
F-0.22331
sS'stand'
p9
F-0.50866
sS'split'
p10
F-0.255665
ssS'classification'
p11
(g8
F-0.22331
tp12
sS'dealer_card'
p13
S'8'
p14
sb.(i__main__
DBEntry
p0
(dp1
S'player_cards'
p2
(lp3
S'3'
p4
ag4
asS'rank'
p5
(dp6
S'double_down'
p7
F-0.89681
sS'hit'
p8
F-0.135295
sS'stand'
p9
F-0.47608
sS'split'
p10
F-0.135525
ssS'classification'
p11
(g8
F-0.135295
tp12
sS'dealer_card'
p13
S'7'
p14
sb.(i__main__
DBEntry
p0
(dp1
S'player_cards'
p2
(lp3
S'3'
p4
ag4
asS'rank'
p5
(dp6
S'double_down'
p7
F-0.28079
sS'hit'
p8
F0.03982
sS'stand'
p9
F-0.15484
sS'split'
p10
F0.07908
ssS'classification'
p11
(g10
F0.07908
tp12
sS'dealer_card'
p13
S'6'
p14
sb.(i__main__
DBEntry
p0
(dp1
S'player_cards'
p2
(lp3
S'3'
p4
ag4
asS'rank'
p5
(dp6
S'double_down'
p7
F-0.31127
sS'hit'
p8
F0.00596
sS'stand'
p9
F-0.16838
sS'split'
p10
F0.024785
ssS'classification'
p11
(g10
F0.024785
tp12
sS'dealer_card'
p13
S'5'
p14
sb.(i__main__
DBEntry
p0
(dp1
S'player_cards'
p2
(lp3
S'3'
p4
ag4
asS'rank'
p5
(dp6
S'double_down'
p7
F-0.39353
sS'hit'
p8
F-0.03749
sS'stand'
p9
F-0.21106
sS'split'
p10
F-0.046475
ssS'classification'
p11
(g8
F-0.03749
tp12
sS'dealer_card'
p13
S'4'
p14
sb.(i__main__
DBEntry
p0
(dp1
S'player_cards'
p2
(lp3
S'3'
p4
ag4
asS'rank'
p5
(dp6
S'double_down'
p7
F-0.48516
sS'hit'
p8
F-0.08046
sS'stand'
p9
F-0.25185
sS'split'
p10
F-0.13143
ssS'classification'
p11
(g8
F-0.08046
tp12
sS'dealer_card'
p13
g4
sb.(i__main__
DBEntry
p0
(dp1
S'player_cards'
p2
(lp3
S'3'
p4
ag4
asS'rank'
p5
(dp6
S'double_down'
p7
F-0.56483
sS'hit'
p8
F-0.12174
sS'stand'
p9
F-0.29022
sS'split'
p10
F-0.19809
ssS'classification'
p11
(g8
F-0.12174
tp12
sS'dealer_card'
p13
S'2'
p14
sb.(i__main__
DBEntry
p0
(dp1
S'player_cards'
p2
(lp3
S'2'
p4
ag4
asS'rank'
p5
(dp6
S'double_down'
p7
F-1.53758
sS'hit'
p8
F-0.45329
sS'stand'
p9
F-0.77136
sS'split'
p10
F-0.661185
ssS'classification'
p11
(g8
F-0.45329
tp12
sS'dealer_card'
p13
S'A'
p14
sb.(i__main__
DBEntry
p0
(dp1
S'player_cards'
p2
(lp3
S'2'
p4
ag4
asS'rank'
p5
(dp6
S'double_down'
p7
F-1.15354
sS'hit'
p8
F-0.335145
sS'stand'
p9
F-0.57879
sS'split'
p10
F-0.490725
ssS'classification'
p11
(g8
F-0.335145
tp12
sS'dealer_card'
p13
S'10'
p14
sb.(i__main__
DBEntry
p0
(dp1
S'player_cards'
p2
(lp3
S'2'
p4
ag4
asS'rank'
p5
(dp6
S'double_down'
p7
F-1.09074
sS'hit'
p8
F-0.232255
sS'stand'
p9
F-0.5421
sS'split'
p10
F-0.32384
ssS'classification'
p11
(g8
F-0.232255
tp12
sS'dealer_card'
p13
S'9'
p14
sb.(i__main__
DBEntry
p0
(dp1
S'player_cards'
p2
(lp3
S'2'
p4
ag4
asS'rank'
p5
(dp6
S'double_down'
p7
F-1.0202
sS'hit'
p8
F-0.13645
sS'stand'
p9
F-0.51104
sS'split'
p10
F-0.17408
ssS'classification'
p11
(g8
F-0.13645
tp12
sS'dealer_card'
p13
S'8'
p14
sb.(i__main__
DBEntry
p0
(dp1
S'player_cards'
p2
(lp3
S'2'
p4
ag4
asS'rank'
p5
(dp6
S'double_down'
p7
F-0.95166
sS'hit'
p8
F-0.059385
sS'stand'
p9
F-0.47655
sS'split'
p10
F-0.044105
ssS'classification'
p11
(g10
F-0.044105
tp12
sS'dealer_card'
p13
S'7'
p14
sb.(i__main__
DBEntry
p0
(dp1
S'player_cards'
p2
(lp3
S'2'
p4
ag4
asS'rank'
p5
(dp6
S'double_down'
p7
F-0.31034
sS'hit'
p8
F0.05652
sS'stand'
p9
F-0.15435
sS'split'
p10
F0.138
ssS'classification'
p11
(g10
F0.138
tp12
sS'dealer_card'
p13
S'6'
p14
sb.(i__main__
DBEntry
p0
(dp1
S'player_cards'
p2
(lp3
S'2'
p4
ag4
asS'rank'
p5
(dp6
S'double_down'
p7
F-0.33154
sS'hit'
p8
F0.0295
sS'stand'
p9
F-0.16679
sS'split'
p10
F0.079765
ssS'classification'
p11
(g10
F0.079765
tp12
sS'dealer_card'
p13
S'5'
p14
sb.(i__main__
DBEntry
p0
(dp1
S'player_cards'
p2
(lp3
S'2'
p4
ag4
asS'rank'
p5
(dp6
S'double_down'
p7
F-0.42326
sS'hit'
p8
F-0.01593
sS'stand'
p9
F-0.21162
sS'split'
p10
F-0.010335
ssS'classification'
p11
(g10
F-0.010335
tp12
sS'dealer_card'
p13
S'4'
p14
sb.(i__main__
DBEntry
p0
(dp1
S'player_cards'
p2
(lp3
S'2'
p4
ag4
asS'rank'
p5
(dp6
S'double_down'
p7
F-0.50978
sS'hit'
p8
F-0.06281
sS'stand'
p9
F-0.25353
sS'split'
p10
F-0.07401
ssS'classification'
p11
(g8
F-0.06281
tp12
sS'dealer_card'
p13
S'3'
p14
sb.(i__main__
DBEntry
p0
(dp1
S'player_cards'
p2
(lp3
S'2'
p4
ag4
asS'rank'
p5
(dp6
S'double_down'
p7
F-0.58624
sS'hit'
p8
F-0.091035
sS'stand'
p9
F-0.29099
sS'split'
p10
F-0.135675
ssS'classification'
p11
(g8
F-0.091035
tp12
sS'dealer_card'
p13
g4
sb.