(i__main__
GameTrace
p0
(dp1
S'dealer_points'
p2
I19
sS'player_cards'
p3
(lp4
S'10'
p5
aS'9'
p6
aS'4'
p7
asS'result'
p8
I-2
sS'player_points'
p9
I0
sS'dealer_cards'
p10
(lp11
g6
aS'7'
p12
aS'3'
p13
asb.(i__main__
GameTrace
p0
(dp1
S'dealer_points'
p2
I17
sS'player_cards'
p3
(lp4
S'10'
p5
aS'9'
p6
aS'6'
p7
asS'result'
p8
I-2
sS'player_points'
p9
I0
sS'dealer_cards'
p10
(lp11
g6
aS'8'
p12
asb.(i__main__
GameTrace
p0
(dp1
S'dealer_points'
p2
I0
sS'player_cards'
p3
(lp4
S'10'
p5
aS'9'
p6
aS'A'
p7
asS'result'
p8
I2
sS'player_points'
p9
I20
sS'dealer_cards'
p10
(lp11
g6
aS'6'
p12
aS'7'
p13
asb.(i__main__
GameTrace
p0
(dp1
S'dealer_points'
p2
I19
sS'player_cards'
p3
(lp4
S'10'
p5
aS'9'
p6
aS'6'
p7
asS'result'
p8
I-2
sS'player_points'
p9
I0
sS'dealer_cards'
p10
(lp11
g6
aS'J'
p12
asb.(i__main__
GameTrace
p0
(dp1
S'dealer_points'
p2
I19
sS'player_cards'
p3
(lp4
S'10'
p5
aS'9'
p6
aS'K'
p7
asS'result'
p8
I-2
sS'player_points'
p9
I0
sS'dealer_cards'
p10
(lp11
g6
ag7
asb.(i__main__
GameTrace
p0
(dp1
S'dealer_points'
p2
I0
sS'player_cards'
p3
(lp4
S'10'
p5
aS'9'
p6
aS'5'
p7
asS'result'
p8
I-2
sS'player_points'
p9
I0
sS'dealer_cards'
p10
(lp11
g6
aS'6'
p12
aS'7'
p13
asb.(i__main__
GameTrace
p0
(dp1
S'dealer_points'
p2
I0
sS'player_cards'
p3
(lp4
S'10'
p5
aS'9'
p6
aS'5'
p7
asS'result'
p8
I-2
sS'player_points'
p9
I0
sS'dealer_cards'
p10
(lp11
g6
aS'3'
p12
ag12
aS'7'
p13
asb.(i__main__
GameTrace
p0
(dp1
S'dealer_points'
p2
I0
sS'player_cards'
p3
(lp4
S'10'
p5
aS'9'
p6
aS'K'
p7
asS'result'
p8
I-2
sS'player_points'
p9
I0
sS'dealer_cards'
p10
(lp11
g6
aS'6'
p12
aS'7'
p13
asb.(i__main__
GameTrace
p0
(dp1
S'dealer_points'
p2
I18
sS'player_cards'
p3
(lp4
S'10'
p5
aS'9'
p6
aS'8'
p7
asS'result'
p8
I-2
sS'player_points'
p9
I0
sS'dealer_cards'
p10
(lp11
g6
ag6
asb.(i__main__
GameTrace
p0
(dp1
S'dealer_points'
p2
I19
sS'player_cards'
p3
(lp4
S'10'
p5
aS'9'
p6
aS'5'
p7
asS'result'
p8
I-2
sS'player_points'
p9
I0
sS'dealer_cards'
p10
(lp11
g6
aS'2'
p12
aS'8'
p13
asb.(i__main__
GameTrace
p0
(dp1
S'dealer_points'
p2
I18
sS'player_cards'
p3
(lp4
S'10'
p5
aS'9'
p6
aS'8'
p7
asS'result'
p8
I-2
sS'player_points'
p9
I0
sS'dealer_cards'
p10
(lp11
g6
aS'7'
p12
aS'2'
p13
asb.(i__main__
GameTrace
p0
(dp1
S'dealer_points'
p2
I17
sS'player_cards'
p3
(lp4
S'10'
p5
aS'9'
p6
aS'8'
p7
asS'result'
p8
I-2
sS'player_points'
p9
I0
sS'dealer_cards'
p10
(lp11
g6
ag7
asb.(i__main__
GameTrace
p0
(dp1
S'dealer_points'
p2
I20
sS'player_cards'
p3
(lp4
S'10'
p5
aS'9'
p6
ag5
asS'result'
p7
I-2
sS'player_points'
p8
I0
sS'dealer_cards'
p9
(lp10
g6
aS'A'
p11
asb.(i__main__
GameTrace
p0
(dp1
S'dealer_points'
p2
I17
sS'player_cards'
p3
(lp4
S'10'
p5
aS'9'
p6
aS'7'
p7
asS'result'
p8
I-2
sS'player_points'
p9
I0
sS'dealer_cards'
p10
(lp11
g6
aS'4'
p12
ag12
asb.(i__main__
GameTrace
p0
(dp1
S'dealer_points'
p2
I19
sS'player_cards'
p3
(lp4
S'10'
p5
aS'9'
p6
aS'3'
p7
asS'result'
p8
I-2
sS'player_points'
p9
I0
sS'dealer_cards'
p10
(lp11
g6
aS'K'
p12
asb.(i__main__
GameTrace
p0
(dp1
S'dealer_points'
p2
I19
sS'player_cards'
p3
(lp4
S'10'
p5
aS'9'
p6
aS'8'
p7
asS'result'
p8
I-2
sS'player_points'
p9
I0
sS'dealer_cards'
p10
(lp11
g6
aS'J'
p12
asb.(i__main__
GameTrace
p0
(dp1
S'dealer_points'
p2
I20
sS'player_cards'
p3
(lp4
S'10'
p5
aS'9'
p6
ag6
asS'result'
p7
I-2
sS'player_points'
p8
I0
sS'dealer_cards'
p9
(lp10
g6
aS'5'
p11
aS'6'
p12
asb.(i__main__
GameTrace
p0
(dp1
S'dealer_points'
p2
I19
sS'player_cards'
p3
(lp4
S'10'
p5
aS'9'
p6
aS'7'
p7
asS'result'
p8
I-2
sS'player_points'
p9
I0
sS'dealer_cards'
p10
(lp11
g6
ag5
asb.(i__main__
GameTrace
p0
(dp1
S'dealer_points'
p2
I0
sS'player_cards'
p3
(lp4
S'10'
p5
aS'9'
p6
aS'5'
p7
asS'result'
p8
I-2
sS'player_points'
p9
I0
sS'dealer_cards'
p10
(lp11
g6
aS'6'
p12
aS'K'
p13
asb.(i__main__
GameTrace
p0
(dp1
S'dealer_points'
p2
I0
sS'player_cards'
p3
(lp4
S'10'
p5
aS'9'
p6
aS'J'
p7
asS'result'
p8
I-2
sS'player_points'
p9
I0
sS'dealer_cards'
p10
(lp11
g6
aS'7'
p12
ag12
asb.